
e:/Code/CPP/ITI/Embedded-CPP/assignement_1_Strings/out.exe:     file format pei-i386


Disassembly of section .text:

00401000 <.text>:
  401000:	83 ec 1c             	sub    $0x1c,%esp
  401003:	8b 44 24 20          	mov    0x20(%esp),%eax
  401007:	8b 00                	mov    (%eax),%eax
  401009:	8b 00                	mov    (%eax),%eax
  40100b:	3d 91 00 00 c0       	cmp    $0xc0000091,%eax
  401010:	76 2e                	jbe    401040 <.text+0x40>
  401012:	3d 94 00 00 c0       	cmp    $0xc0000094,%eax
  401017:	0f 84 d7 00 00 00    	je     4010f4 <.text+0xf4>
  40101d:	3d 96 00 00 c0       	cmp    $0xc0000096,%eax
  401022:	74 63                	je     401087 <.text+0x87>
  401024:	3d 93 00 00 c0       	cmp    $0xc0000093,%eax
  401029:	0f 84 91 00 00 00    	je     4010c0 <.text+0xc0>
  40102f:	31 c0                	xor    %eax,%eax
  401031:	83 c4 1c             	add    $0x1c,%esp
  401034:	c2 04 00             	ret    $0x4
  401037:	8d b4 26 00 00 00 00 	lea    0x0(%esi,%eiz,1),%esi
  40103e:	66 90                	xchg   %ax,%ax
  401040:	3d 8d 00 00 c0       	cmp    $0xc000008d,%eax
  401045:	73 79                	jae    4010c0 <.text+0xc0>
  401047:	3d 05 00 00 c0       	cmp    $0xc0000005,%eax
  40104c:	75 32                	jne    401080 <.text+0x80>
  40104e:	c7 44 24 04 00 00 00 	movl   $0x0,0x4(%esp)
  401055:	00 
  401056:	c7 04 24 0b 00 00 00 	movl   $0xb,(%esp)
  40105d:	e8 36 34 00 00       	call   404498 <_signal>
  401062:	83 f8 01             	cmp    $0x1,%eax
  401065:	0f 84 ef 00 00 00    	je     40115a <.text+0x15a>
  40106b:	85 c0                	test   %eax,%eax
  40106d:	74 c0                	je     40102f <.text+0x2f>
  40106f:	c7 04 24 0b 00 00 00 	movl   $0xb,(%esp)
  401076:	ff d0                	call   *%eax
  401078:	b8 ff ff ff ff       	mov    $0xffffffff,%eax
  40107d:	eb b2                	jmp    401031 <.text+0x31>
  40107f:	90                   	nop
  401080:	3d 1d 00 00 c0       	cmp    $0xc000001d,%eax
  401085:	75 a8                	jne    40102f <.text+0x2f>
  401087:	c7 44 24 04 00 00 00 	movl   $0x0,0x4(%esp)
  40108e:	00 
  40108f:	c7 04 24 04 00 00 00 	movl   $0x4,(%esp)
  401096:	e8 fd 33 00 00       	call   404498 <_signal>
  40109b:	83 f8 01             	cmp    $0x1,%eax
  40109e:	0f 84 d2 00 00 00    	je     401176 <.text+0x176>
  4010a4:	85 c0                	test   %eax,%eax
  4010a6:	74 87                	je     40102f <.text+0x2f>
  4010a8:	c7 04 24 04 00 00 00 	movl   $0x4,(%esp)
  4010af:	ff d0                	call   *%eax
  4010b1:	b8 ff ff ff ff       	mov    $0xffffffff,%eax
  4010b6:	e9 76 ff ff ff       	jmp    401031 <.text+0x31>
  4010bb:	8d 74 26 00          	lea    0x0(%esi,%eiz,1),%esi
  4010bf:	90                   	nop
  4010c0:	c7 44 24 04 00 00 00 	movl   $0x0,0x4(%esp)
  4010c7:	00 
  4010c8:	c7 04 24 08 00 00 00 	movl   $0x8,(%esp)
  4010cf:	e8 c4 33 00 00       	call   404498 <_signal>
  4010d4:	83 f8 01             	cmp    $0x1,%eax
  4010d7:	74 57                	je     401130 <.text+0x130>
  4010d9:	85 c0                	test   %eax,%eax
  4010db:	0f 84 4e ff ff ff    	je     40102f <.text+0x2f>
  4010e1:	c7 04 24 08 00 00 00 	movl   $0x8,(%esp)
  4010e8:	ff d0                	call   *%eax
  4010ea:	b8 ff ff ff ff       	mov    $0xffffffff,%eax
  4010ef:	e9 3d ff ff ff       	jmp    401031 <.text+0x31>
  4010f4:	c7 44 24 04 00 00 00 	movl   $0x0,0x4(%esp)
  4010fb:	00 
  4010fc:	c7 04 24 08 00 00 00 	movl   $0x8,(%esp)
  401103:	e8 90 33 00 00       	call   404498 <_signal>
  401108:	83 f8 01             	cmp    $0x1,%eax
  40110b:	75 cc                	jne    4010d9 <.text+0xd9>
  40110d:	c7 44 24 04 01 00 00 	movl   $0x1,0x4(%esp)
  401114:	00 
  401115:	c7 04 24 08 00 00 00 	movl   $0x8,(%esp)
  40111c:	e8 77 33 00 00       	call   404498 <_signal>
  401121:	b8 ff ff ff ff       	mov    $0xffffffff,%eax
  401126:	e9 06 ff ff ff       	jmp    401031 <.text+0x31>
  40112b:	8d 74 26 00          	lea    0x0(%esi,%eiz,1),%esi
  40112f:	90                   	nop
  401130:	c7 44 24 04 01 00 00 	movl   $0x1,0x4(%esp)
  401137:	00 
  401138:	c7 04 24 08 00 00 00 	movl   $0x8,(%esp)
  40113f:	e8 54 33 00 00       	call   404498 <_signal>
  401144:	c7 04 24 00 00 00 00 	movl   $0x0,(%esp)
  40114b:	e8 e0 18 00 00       	call   402a30 <_fesetenv>
  401150:	b8 ff ff ff ff       	mov    $0xffffffff,%eax
  401155:	e9 d7 fe ff ff       	jmp    401031 <.text+0x31>
  40115a:	c7 44 24 04 01 00 00 	movl   $0x1,0x4(%esp)
  401161:	00 
  401162:	c7 04 24 0b 00 00 00 	movl   $0xb,(%esp)
  401169:	e8 2a 33 00 00       	call   404498 <_signal>
  40116e:	83 c8 ff             	or     $0xffffffff,%eax
  401171:	e9 bb fe ff ff       	jmp    401031 <.text+0x31>
  401176:	c7 44 24 04 01 00 00 	movl   $0x1,0x4(%esp)
  40117d:	00 
  40117e:	c7 04 24 04 00 00 00 	movl   $0x4,(%esp)
  401185:	e8 0e 33 00 00       	call   404498 <_signal>
  40118a:	83 c8 ff             	or     $0xffffffff,%eax
  40118d:	e9 9f fe ff ff       	jmp    401031 <.text+0x31>
  401192:	8d b4 26 00 00 00 00 	lea    0x0(%esi,%eiz,1),%esi
  401199:	8d b4 26 00 00 00 00 	lea    0x0(%esi,%eiz,1),%esi
  4011a0:	55                   	push   %ebp
  4011a1:	89 e5                	mov    %esp,%ebp
  4011a3:	53                   	push   %ebx
  4011a4:	83 ec 14             	sub    $0x14,%esp
  4011a7:	a1 24 92 40 00       	mov    0x409224,%eax
  4011ac:	85 c0                	test   %eax,%eax
  4011ae:	74 1c                	je     4011cc <.text+0x1cc>
  4011b0:	c7 44 24 08 00 00 00 	movl   $0x0,0x8(%esp)
  4011b7:	00 
  4011b8:	c7 44 24 04 02 00 00 	movl   $0x2,0x4(%esp)
  4011bf:	00 
  4011c0:	c7 04 24 00 00 00 00 	movl   $0x0,(%esp)
  4011c7:	ff d0                	call   *%eax
  4011c9:	83 ec 0c             	sub    $0xc,%esp
  4011cc:	c7 04 24 00 10 40 00 	movl   $0x401000,(%esp)
  4011d3:	e8 68 33 00 00       	call   404540 <_SetUnhandledExceptionFilter@4>
  4011d8:	83 ec 04             	sub    $0x4,%esp
  4011db:	e8 d0 0f 00 00       	call   4021b0 <___cpu_features_init>
  4011e0:	a1 08 80 40 00       	mov    0x408008,%eax
  4011e5:	89 04 24             	mov    %eax,(%esp)
  4011e8:	e8 43 18 00 00       	call   402a30 <_fesetenv>
  4011ed:	e8 4e 0c 00 00       	call   401e40 <__setargv>
  4011f2:	a1 24 e0 40 00       	mov    0x40e024,%eax
  4011f7:	85 c0                	test   %eax,%eax
  4011f9:	75 4a                	jne    401245 <.text+0x245>
  4011fb:	e8 10 33 00 00       	call   404510 <___p__fmode>
  401200:	8b 15 0c 80 40 00    	mov    0x40800c,%edx
  401206:	89 10                	mov    %edx,(%eax)
  401208:	e8 f3 15 00 00       	call   402800 <__pei386_runtime_relocator>
  40120d:	83 e4 f0             	and    $0xfffffff0,%esp
  401210:	e8 3b 11 00 00       	call   402350 <___main>
  401215:	e8 fe 32 00 00       	call   404518 <___p__environ>
  40121a:	8b 00                	mov    (%eax),%eax
  40121c:	89 44 24 08          	mov    %eax,0x8(%esp)
  401220:	a1 00 e0 40 00       	mov    0x40e000,%eax
  401225:	89 44 24 04          	mov    %eax,0x4(%esp)
  401229:	a1 04 e0 40 00       	mov    0x40e004,%eax
  40122e:	89 04 24             	mov    %eax,(%esp)
  401231:	e8 7c 02 00 00       	call   4014b2 <_main>
  401236:	89 c3                	mov    %eax,%ebx
  401238:	e8 cb 32 00 00       	call   404508 <__cexit>
  40123d:	89 1c 24             	mov    %ebx,(%esp)
  401240:	e8 5b 33 00 00       	call   4045a0 <_ExitProcess@4>
  401245:	8b 1d 9c f2 40 00    	mov    0x40f29c,%ebx
  40124b:	a3 0c 80 40 00       	mov    %eax,0x40800c
  401250:	89 44 24 04          	mov    %eax,0x4(%esp)
  401254:	8b 43 10             	mov    0x10(%ebx),%eax
  401257:	89 04 24             	mov    %eax,(%esp)
  40125a:	e8 89 32 00 00       	call   4044e8 <__setmode>
  40125f:	a1 24 e0 40 00       	mov    0x40e024,%eax
  401264:	89 44 24 04          	mov    %eax,0x4(%esp)
  401268:	8b 43 30             	mov    0x30(%ebx),%eax
  40126b:	89 04 24             	mov    %eax,(%esp)
  40126e:	e8 75 32 00 00       	call   4044e8 <__setmode>
  401273:	a1 24 e0 40 00       	mov    0x40e024,%eax
  401278:	89 44 24 04          	mov    %eax,0x4(%esp)
  40127c:	8b 43 50             	mov    0x50(%ebx),%eax
  40127f:	89 04 24             	mov    %eax,(%esp)
  401282:	e8 61 32 00 00       	call   4044e8 <__setmode>
  401287:	e9 6f ff ff ff       	jmp    4011fb <.text+0x1fb>
  40128c:	8d 74 26 00          	lea    0x0(%esi,%eiz,1),%esi

00401290 <__mingw32_init_mainargs>:
  401290:	83 ec 3c             	sub    $0x3c,%esp
  401293:	8d 44 24 2c          	lea    0x2c(%esp),%eax
  401297:	c7 44 24 04 00 e0 40 	movl   $0x40e000,0x4(%esp)
  40129e:	00 
  40129f:	89 44 24 10          	mov    %eax,0x10(%esp)
  4012a3:	a1 04 80 40 00       	mov    0x408004,%eax
  4012a8:	c7 04 24 04 e0 40 00 	movl   $0x40e004,(%esp)
  4012af:	83 e0 01             	and    $0x1,%eax
  4012b2:	c7 44 24 2c 00 00 00 	movl   $0x0,0x2c(%esp)
  4012b9:	00 
  4012ba:	89 44 24 0c          	mov    %eax,0xc(%esp)
  4012be:	8d 44 24 28          	lea    0x28(%esp),%eax
  4012c2:	89 44 24 08          	mov    %eax,0x8(%esp)
  4012c6:	e8 55 32 00 00       	call   404520 <___getmainargs>
  4012cb:	83 c4 3c             	add    $0x3c,%esp
  4012ce:	c3                   	ret    
  4012cf:	90                   	nop

004012d0 <_mainCRTStartup>:
  4012d0:	83 ec 1c             	sub    $0x1c,%esp
  4012d3:	c7 04 24 01 00 00 00 	movl   $0x1,(%esp)
  4012da:	ff 15 88 f2 40 00    	call   *0x40f288
  4012e0:	e8 bb fe ff ff       	call   4011a0 <.text+0x1a0>
  4012e5:	8d b4 26 00 00 00 00 	lea    0x0(%esi,%eiz,1),%esi
  4012ec:	8d 74 26 00          	lea    0x0(%esi,%eiz,1),%esi

004012f0 <_WinMainCRTStartup>:
  4012f0:	83 ec 1c             	sub    $0x1c,%esp
  4012f3:	c7 04 24 02 00 00 00 	movl   $0x2,(%esp)
  4012fa:	ff 15 88 f2 40 00    	call   *0x40f288
  401300:	e8 9b fe ff ff       	call   4011a0 <.text+0x1a0>
  401305:	8d b4 26 00 00 00 00 	lea    0x0(%esi,%eiz,1),%esi
  40130c:	8d 74 26 00          	lea    0x0(%esi,%eiz,1),%esi

00401310 <_atexit>:
  401310:	ff 25 b4 f2 40 00    	jmp    *0x40f2b4
  401316:	8d b4 26 00 00 00 00 	lea    0x0(%esi,%eiz,1),%esi
  40131d:	8d 76 00             	lea    0x0(%esi),%esi

00401320 <__onexit>:
  401320:	ff 25 a4 f2 40 00    	jmp    *0x40f2a4
  401326:	90                   	nop
  401327:	90                   	nop
  401328:	90                   	nop
  401329:	90                   	nop
  40132a:	90                   	nop
  40132b:	90                   	nop
  40132c:	90                   	nop
  40132d:	90                   	nop
  40132e:	90                   	nop
  40132f:	90                   	nop

00401330 <___gcc_register_frame>:
  401330:	55                   	push   %ebp
  401331:	89 e5                	mov    %esp,%ebp
  401333:	56                   	push   %esi
  401334:	53                   	push   %ebx
  401335:	83 ec 10             	sub    $0x10,%esp
  401338:	c7 04 24 00 90 40 00 	movl   $0x409000,(%esp)
  40133f:	e8 24 32 00 00       	call   404568 <_GetModuleHandleA@4>
  401344:	83 ec 04             	sub    $0x4,%esp
  401347:	85 c0                	test   %eax,%eax
  401349:	74 75                	je     4013c0 <___gcc_register_frame+0x90>
  40134b:	c7 04 24 00 90 40 00 	movl   $0x409000,(%esp)
  401352:	89 c3                	mov    %eax,%ebx
  401354:	e8 ef 31 00 00       	call   404548 <_LoadLibraryA@4>
  401359:	83 ec 04             	sub    $0x4,%esp
  40135c:	a3 70 e0 40 00       	mov    %eax,0x40e070
  401361:	c7 44 24 04 13 90 40 	movl   $0x409013,0x4(%esp)
  401368:	00 
  401369:	89 1c 24             	mov    %ebx,(%esp)
  40136c:	e8 ef 31 00 00       	call   404560 <_GetProcAddress@8>
  401371:	83 ec 08             	sub    $0x8,%esp
  401374:	89 c6                	mov    %eax,%esi
  401376:	c7 44 24 04 29 90 40 	movl   $0x409029,0x4(%esp)
  40137d:	00 
  40137e:	89 1c 24             	mov    %ebx,(%esp)
  401381:	e8 da 31 00 00       	call   404560 <_GetProcAddress@8>
  401386:	a3 00 80 40 00       	mov    %eax,0x408000
  40138b:	83 ec 08             	sub    $0x8,%esp
  40138e:	85 f6                	test   %esi,%esi
  401390:	74 11                	je     4013a3 <___gcc_register_frame+0x73>
  401392:	c7 44 24 04 08 e0 40 	movl   $0x40e008,0x4(%esp)
  401399:	00 
  40139a:	c7 04 24 b8 a0 40 00 	movl   $0x40a0b8,(%esp)
  4013a1:	ff d6                	call   *%esi
  4013a3:	c7 04 24 e0 13 40 00 	movl   $0x4013e0,(%esp)
  4013aa:	e8 61 ff ff ff       	call   401310 <_atexit>
  4013af:	8d 65 f8             	lea    -0x8(%ebp),%esp
  4013b2:	5b                   	pop    %ebx
  4013b3:	5e                   	pop    %esi
  4013b4:	5d                   	pop    %ebp
  4013b5:	c3                   	ret    
  4013b6:	8d b4 26 00 00 00 00 	lea    0x0(%esi,%eiz,1),%esi
  4013bd:	8d 76 00             	lea    0x0(%esi),%esi
  4013c0:	c7 05 00 80 40 00 e8 	movl   $0x4029e8,0x408000
  4013c7:	29 40 00 
  4013ca:	be e0 29 40 00       	mov    $0x4029e0,%esi
  4013cf:	eb bd                	jmp    40138e <___gcc_register_frame+0x5e>
  4013d1:	8d b4 26 00 00 00 00 	lea    0x0(%esi,%eiz,1),%esi
  4013d8:	8d b4 26 00 00 00 00 	lea    0x0(%esi,%eiz,1),%esi
  4013df:	90                   	nop

004013e0 <___gcc_deregister_frame>:
  4013e0:	55                   	push   %ebp
  4013e1:	89 e5                	mov    %esp,%ebp
  4013e3:	83 ec 18             	sub    $0x18,%esp
  4013e6:	a1 00 80 40 00       	mov    0x408000,%eax
  4013eb:	85 c0                	test   %eax,%eax
  4013ed:	74 09                	je     4013f8 <___gcc_deregister_frame+0x18>
  4013ef:	c7 04 24 b8 a0 40 00 	movl   $0x40a0b8,(%esp)
  4013f6:	ff d0                	call   *%eax
  4013f8:	a1 70 e0 40 00       	mov    0x40e070,%eax
  4013fd:	85 c0                	test   %eax,%eax
  4013ff:	74 0b                	je     40140c <___gcc_deregister_frame+0x2c>
  401401:	89 04 24             	mov    %eax,(%esp)
  401404:	e8 77 31 00 00       	call   404580 <_FreeLibrary@4>
  401409:	83 ec 04             	sub    $0x4,%esp
  40140c:	c9                   	leave  
  40140d:	c3                   	ret    
  40140e:	90                   	nop
            else
                type = "other";
        }
};
string int2string(int a)
{
  40140f:	90                   	nop

00401410 <__Z10int2stringB5cxx11i>:
  401410:	55                   	push   %ebp
  401411:	89 e5                	mov    %esp,%ebp
  401413:	53                   	push   %ebx
  401414:	81 ec e4 00 00 00    	sub    $0xe4,%esp
    stringstream ss;
  40141a:	c7 44 24 04 08 00 00 	movl   $0x8,0x4(%esp)
  401421:	00 
  401422:	c7 04 24 10 00 00 00 	movl   $0x10,(%esp)
  401429:	e8 32 59 00 00       	call   406d60 <__ZStorSt13_Ios_OpenmodeS_>
  40142e:	89 c2                	mov    %eax,%edx
  401430:	8d 85 28 ff ff ff    	lea    -0xd8(%ebp),%eax
  401436:	89 14 24             	mov    %edx,(%esp)
  401439:	89 c1                	mov    %eax,%ecx
  40143b:	e8 2c 09 00 00       	call   401d6c <__ZNSt7__cxx1118basic_stringstreamIcSt11char_traitsIcESaIcEEC1ESt13_Ios_Openmode>
  401440:	83 ec 04             	sub    $0x4,%esp
    string out;
  401443:	8b 4d 08             	mov    0x8(%ebp),%ecx
  401446:	e8 49 09 00 00       	call   401d94 <__ZNSt7__cxx1112basic_stringIcSt11char_traitsIcESaIcEEC1Ev>
    ss << a;
  40144b:	8d 85 28 ff ff ff    	lea    -0xd8(%ebp),%eax
  401451:	8d 50 08             	lea    0x8(%eax),%edx
  401454:	8b 45 0c             	mov    0xc(%ebp),%eax
  401457:	89 04 24             	mov    %eax,(%esp)
  40145a:	89 d1                	mov    %edx,%ecx
  40145c:	e8 83 09 00 00       	call   401de4 <__ZNSolsEi>
  401461:	83 ec 04             	sub    $0x4,%esp
    ss >> out;
  401464:	8b 45 08             	mov    0x8(%ebp),%eax
  401467:	89 44 24 04          	mov    %eax,0x4(%esp)
  40146b:	8d 85 28 ff ff ff    	lea    -0xd8(%ebp),%eax
  401471:	89 04 24             	mov    %eax,(%esp)
  401474:	e8 83 08 00 00       	call   401cfc <__ZStrsIcSt11char_traitsIcESaIcEERSt13basic_istreamIT_T0_ES7_RNSt7__cxx1112basic_stringIS4_S5_T1_EE>
    return out;
  401479:	90                   	nop
    stringstream ss;
  40147a:	8d 85 28 ff ff ff    	lea    -0xd8(%ebp),%eax
  401480:	89 c1                	mov    %eax,%ecx
  401482:	e8 dd 08 00 00       	call   401d64 <__ZNSt7__cxx1118basic_stringstreamIcSt11char_traitsIcESaIcEED1Ev>
    return out;
  401487:	eb 21                	jmp    4014aa <__Z10int2stringB5cxx11i+0x9a>
  401489:	89 c3                	mov    %eax,%ebx
  40148b:	8b 4d 08             	mov    0x8(%ebp),%ecx
  40148e:	e8 f9 08 00 00       	call   401d8c <__ZNSt7__cxx1112basic_stringIcSt11char_traitsIcESaIcEED1Ev>
    stringstream ss;
  401493:	8d 85 28 ff ff ff    	lea    -0xd8(%ebp),%eax
  401499:	89 c1                	mov    %eax,%ecx
  40149b:	e8 c4 08 00 00       	call   401d64 <__ZNSt7__cxx1118basic_stringstreamIcSt11char_traitsIcESaIcEED1Ev>
  4014a0:	89 d8                	mov    %ebx,%eax
  4014a2:	89 04 24             	mov    %eax,(%esp)
  4014a5:	e8 46 15 00 00       	call   4029f0 <__Unwind_Resume>
}
  4014aa:	8b 45 08             	mov    0x8(%ebp),%eax
  4014ad:	8b 5d fc             	mov    -0x4(%ebp),%ebx
  4014b0:	c9                   	leave  
  4014b1:	c3                   	ret    

004014b2 <_main>:
int main()
{
  4014b2:	8d 4c 24 04          	lea    0x4(%esp),%ecx
  4014b6:	83 e4 f0             	and    $0xfffffff0,%esp
  4014b9:	ff 71 fc             	pushl  -0x4(%ecx)
  4014bc:	55                   	push   %ebp
  4014bd:	89 e5                	mov    %esp,%ebp
  4014bf:	53                   	push   %ebx
  4014c0:	51                   	push   %ecx
  4014c1:	81 ec 70 02 00 00    	sub    $0x270,%esp
  4014c7:	e8 84 0e 00 00       	call   402350 <___main>
    int q;
    cin >> q;
  4014cc:	8d 85 38 fe ff ff    	lea    -0x1c8(%ebp),%eax
  4014d2:	89 04 24             	mov    %eax,(%esp)
  4014d5:	b9                   	.byte 0xb9

004014d6 <__fu0___ZSt3cin>:
  4014d6:	90                   	nop
  4014d7:	f3 40                	repz inc %eax
  4014d9:	00 e8                	add    %ch,%al
  4014db:	15 09 00 00 83       	adc    $0x83000009,%eax
  4014e0:	ec                   	in     (%dx),%al
  4014e1:	04 8d                	add    $0x8d,%al
    string input;
  4014e3:	85 20                	test   %esp,(%eax)
  4014e5:	fe                   	(bad)  
  4014e6:	ff                   	(bad)  
  4014e7:	ff 89 c1 e8 a5 08    	decl   0x8a5e8c1(%ecx)
  4014ed:	00 00                	add    %al,(%eax)
    vector <int> filecount(q);
  4014ef:	8d 85 3e fe ff ff    	lea    -0x1c2(%ebp),%eax
  4014f5:	89 c1                	mov    %eax,%ecx
  4014f7:	e8 7c 39 00 00       	call   404e78 <__ZNSaIiEC1Ev>
  4014fc:	8b 85 38 fe ff ff    	mov    -0x1c8(%ebp),%eax
  401502:	89 c1                	mov    %eax,%ecx
  401504:	8d 85 14 fe ff ff    	lea    -0x1ec(%ebp),%eax
  40150a:	8d 95 3e fe ff ff    	lea    -0x1c2(%ebp),%edx
  401510:	89 54 24 04          	mov    %edx,0x4(%esp)
  401514:	89 0c 24             	mov    %ecx,(%esp)
  401517:	89 c1                	mov    %eax,%ecx
  401519:	e8 46 47 00 00       	call   405c64 <__ZNSt6vectorIiSaIiEEC1EjRKS0_>
  40151e:	83 ec 08             	sub    $0x8,%esp
  401521:	8d 85 3e fe ff ff    	lea    -0x1c2(%ebp),%eax
  401527:	89 c1                	mov    %eax,%ecx
  401529:	e8 86 39 00 00       	call   404eb4 <__ZNSaIiED1Ev>
    vector <string> output(q);
  40152e:	8d 85 3f fe ff ff    	lea    -0x1c1(%ebp),%eax
  401534:	89 c1                	mov    %eax,%ecx
  401536:	e8 a1 38 00 00       	call   404ddc <__ZNSaINSt7__cxx1112basic_stringIcSt11char_traitsIcESaIcEEEEC1Ev>
  40153b:	8b 85 38 fe ff ff    	mov    -0x1c8(%ebp),%eax
  401541:	89 c1                	mov    %eax,%ecx
  401543:	8d 85 08 fe ff ff    	lea    -0x1f8(%ebp),%eax
  401549:	8d 95 3f fe ff ff    	lea    -0x1c1(%ebp),%edx
  40154f:	89 54 24 04          	mov    %edx,0x4(%esp)
  401553:	89 0c 24             	mov    %ecx,(%esp)
  401556:	89 c1                	mov    %eax,%ecx
  401558:	e8 13 46 00 00       	call   405b70 <__ZNSt6vectorINSt7__cxx1112basic_stringIcSt11char_traitsIcESaIcEEESaIS5_EEC1EjRKS6_>
  40155d:	83 ec 08             	sub    $0x8,%esp
  401560:	8d 85 3f fe ff ff    	lea    -0x1c1(%ebp),%eax
  401566:	89 c1                	mov    %eax,%ecx
  401568:	e8 ab 38 00 00       	call   404e18 <__ZNSaINSt7__cxx1112basic_stringIcSt11char_traitsIcESaIcEEEED1Ev>
    for(int i=0;i<q;i++)
  40156d:	c7 45 f4 00 00 00 00 	movl   $0x0,-0xc(%ebp)
  401574:	8b 85 38 fe ff ff    	mov    -0x1c8(%ebp),%eax
  40157a:	39 45 f4             	cmp    %eax,-0xc(%ebp)
  40157d:	7d 2c                	jge    4015ab <__fu1___ZSt3cin+0x12>
    {
        cin >> filecount[i];
  40157f:	8b 55 f4             	mov    -0xc(%ebp),%edx
  401582:	8d 85 14 fe ff ff    	lea    -0x1ec(%ebp),%eax
  401588:	89 14 24             	mov    %edx,(%esp)
  40158b:	89 c1                	mov    %eax,%ecx
  40158d:	e8 6a 47 00 00       	call   405cfc <__ZNSt6vectorIiSaIiEEixEj>
  401592:	83 ec 04             	sub    $0x4,%esp
  401595:	89 04 24             	mov    %eax,(%esp)
  401598:	b9                   	.byte 0xb9

00401599 <__fu1___ZSt3cin>:
  401599:	90                   	nop
  40159a:	f3 40                	repz inc %eax
  40159c:	00 e8                	add    %ch,%al
  40159e:	52                   	push   %edx
  40159f:	08 00                	or     %al,(%eax)
  4015a1:	00 83 ec 04 83 45    	add    %al,0x458304ec(%ebx)
    for(int i=0;i<q;i++)
  4015a7:	f4                   	hlt    
  4015a8:	01 eb                	add    %ebp,%ebx
  4015aa:	c9                   	leave  
    }
    cin.ignore(256,'\n');
  4015ab:	c7 44 24 04 0a 00 00 	movl   $0xa,0x4(%esp)
  4015b2:	00 
  4015b3:	c7 04 24 00 01 00 00 	movl   $0x100,(%esp)
  4015ba:	b9                   	.byte 0xb9

004015bb <__fu2___ZSt3cin>:
  4015bb:	90                   	nop
  4015bc:	f3 40                	repz inc %eax
  4015be:	00 e8                	add    %ch,%al
  4015c0:	38 08                	cmp    %cl,(%eax)
  4015c2:	00 00                	add    %al,(%eax)
  4015c4:	83 ec 08             	sub    $0x8,%esp
    for(int i=0;i<q;i++)
  4015c7:	c7 45 f0 00 00 00 00 	movl   $0x0,-0x10(%ebp)
  4015ce:	8b 85 38 fe ff ff    	mov    -0x1c8(%ebp),%eax
  4015d4:	39 45 f0             	cmp    %eax,-0x10(%ebp)
  4015d7:	0f 8d 4e 04 00 00    	jge    401a2b <__fu3___ZSt3cin+0x407>
    {
        map <string,int> tot;
  4015dd:	8d 85 f0 fd ff ff    	lea    -0x210(%ebp),%eax
  4015e3:	89 c1                	mov    %eax,%ecx
  4015e5:	e8 de 40 00 00       	call   4056c8 <__ZNSt3mapINSt7__cxx1112basic_stringIcSt11char_traitsIcESaIcEEEiSt4lessIS5_ESaISt4pairIKS5_iEEEC1Ev>
        for(int f=0;f<filecount[i];f++)
  4015ea:	c7 45 ec 00 00 00 00 	movl   $0x0,-0x14(%ebp)
  4015f1:	8b 55 f0             	mov    -0x10(%ebp),%edx
  4015f4:	8d 85 14 fe ff ff    	lea    -0x1ec(%ebp),%eax
  4015fa:	89 14 24             	mov    %edx,(%esp)
  4015fd:	89 c1                	mov    %eax,%ecx
  4015ff:	e8 f8 46 00 00       	call   405cfc <__ZNSt6vectorIiSaIiEEixEj>
  401604:	83 ec 04             	sub    $0x4,%esp
  401607:	8b 00                	mov    (%eax),%eax
  401609:	39 45 ec             	cmp    %eax,-0x14(%ebp)
  40160c:	0f 9c c0             	setl   %al
  40160f:	84 c0                	test   %al,%al
  401611:	0f 84 93 00 00 00    	je     4016aa <__fu3___ZSt3cin+0x86>
        {
            getline(cin,input);
  401617:	8d 85 20 fe ff ff    	lea    -0x1e0(%ebp),%eax
  40161d:	89 44 24 04          	mov    %eax,0x4(%esp)
  401621:	c7                   	.byte 0xc7
  401622:	04 24                	add    $0x24,%al

00401624 <__fu3___ZSt3cin>:
  401624:	90                   	nop
  401625:	f3 40                	repz inc %eax
  401627:	00 e8                	add    %ch,%al
  401629:	e7 06                	out    %eax,$0x6
  40162b:	00 00                	add    %al,(%eax)
            file F(input);
  40162d:	8d 85 40 fe ff ff    	lea    -0x1c0(%ebp),%eax
  401633:	8d 95 20 fe ff ff    	lea    -0x1e0(%ebp),%edx
  401639:	89 14 24             	mov    %edx,(%esp)
  40163c:	89 c1                	mov    %eax,%ecx
  40163e:	e8 59 07 00 00       	call   401d9c <__ZNSt7__cxx1112basic_stringIcSt11char_traitsIcESaIcEEC1ERKS4_>
  401643:	83 ec 04             	sub    $0x4,%esp
  401646:	8d 85 a4 fd ff ff    	lea    -0x25c(%ebp),%eax
  40164c:	8d 95 40 fe ff ff    	lea    -0x1c0(%ebp),%edx
  401652:	89 14 24             	mov    %edx,(%esp)
  401655:	89 c1                	mov    %eax,%ecx
  401657:	e8 6c 2f 00 00       	call   4045c8 <__ZN4fileC1ENSt7__cxx1112basic_stringIcSt11char_traitsIcESaIcEEE>
  40165c:	83 ec 04             	sub    $0x4,%esp
  40165f:	8d 85 40 fe ff ff    	lea    -0x1c0(%ebp),%eax
  401665:	89 c1                	mov    %eax,%ecx
  401667:	e8 20 07 00 00       	call   401d8c <__ZNSt7__cxx1112basic_stringIcSt11char_traitsIcESaIcEED1Ev>
            tot[F.type] += F.size;
  40166c:	8d 85 f0 fd ff ff    	lea    -0x210(%ebp),%eax
  401672:	8d 95 a4 fd ff ff    	lea    -0x25c(%ebp),%edx
  401678:	83 c2 34             	add    $0x34,%edx
  40167b:	89 14 24             	mov    %edx,(%esp)
  40167e:	89 c1                	mov    %eax,%ecx
  401680:	e8 67 41 00 00       	call   4057ec <__ZNSt3mapINSt7__cxx1112basic_stringIcSt11char_traitsIcESaIcEEEiSt4lessIS5_ESaISt4pairIKS5_iEEEixERS9_>
  401685:	83 ec 04             	sub    $0x4,%esp
  401688:	8b 08                	mov    (%eax),%ecx
  40168a:	8b 95 d4 fd ff ff    	mov    -0x22c(%ebp),%edx
  401690:	01 ca                	add    %ecx,%edx
  401692:	89 10                	mov    %edx,(%eax)
            file F(input);
  401694:	8d 85 a4 fd ff ff    	lea    -0x25c(%ebp),%eax
  40169a:	89 c1                	mov    %eax,%ecx
  40169c:	e8 a3 32 00 00       	call   404944 <__ZN4fileD1Ev>
        for(int f=0;f<filecount[i];f++)
  4016a1:	83 45 ec 01          	addl   $0x1,-0x14(%ebp)
  4016a5:	e9 47 ff ff ff       	jmp    4015f1 <__fu2___ZSt3cin+0x36>
        }
        output[i] = "music "+int2string(tot["music"])
        +"b images "+int2string(tot["image"])
        +"b movies "+int2string(tot["movie"])
        +"b other "+int2string(tot["other"])+"b";
  4016aa:	8d 85 bb fe ff ff    	lea    -0x145(%ebp),%eax
  4016b0:	89 c1                	mov    %eax,%ecx
  4016b2:	e8 55 07 00 00       	call   401e0c <__ZNSaIcEC1Ev>
  4016b7:	8d 85 a0 fe ff ff    	lea    -0x160(%ebp),%eax
  4016bd:	8d 95 bb fe ff ff    	lea    -0x145(%ebp),%edx
  4016c3:	89 54 24 04          	mov    %edx,0x4(%esp)
  4016c7:	c7 04 24 7e 90 40 00 	movl   $0x40907e,(%esp)
  4016ce:	89 c1                	mov    %eax,%ecx
  4016d0:	e8 cf 06 00 00       	call   401da4 <__ZNSt7__cxx1112basic_stringIcSt11char_traitsIcESaIcEEC1EPKcRKS3_>
  4016d5:	83 ec 08             	sub    $0x8,%esp
  4016d8:	8d 85 f0 fd ff ff    	lea    -0x210(%ebp),%eax
  4016de:	8d 95 a0 fe ff ff    	lea    -0x160(%ebp),%edx
  4016e4:	89 14 24             	mov    %edx,(%esp)
  4016e7:	89 c1                	mov    %eax,%ecx
  4016e9:	e8 0a 40 00 00       	call   4056f8 <__ZNSt3mapINSt7__cxx1112basic_stringIcSt11char_traitsIcESaIcEEEiSt4lessIS5_ESaISt4pairIKS5_iEEEixEOS5_>
  4016ee:	83 ec 04             	sub    $0x4,%esp
  4016f1:	8b 10                	mov    (%eax),%edx
  4016f3:	8d 85 88 fe ff ff    	lea    -0x178(%ebp),%eax
  4016f9:	89 54 24 04          	mov    %edx,0x4(%esp)
  4016fd:	89 04 24             	mov    %eax,(%esp)
  401700:	e8 0b fd ff ff       	call   401410 <__Z10int2stringB5cxx11i>
        +"b movies "+int2string(tot["movie"])
  401705:	8d 85 1f ff ff ff    	lea    -0xe1(%ebp),%eax
  40170b:	89 c1                	mov    %eax,%ecx
  40170d:	e8 fa 06 00 00       	call   401e0c <__ZNSaIcEC1Ev>
  401712:	8d 85 04 ff ff ff    	lea    -0xfc(%ebp),%eax
  401718:	8d 95 1f ff ff ff    	lea    -0xe1(%ebp),%edx
  40171e:	89 54 24 04          	mov    %edx,0x4(%esp)
  401722:	c7 04 24 78 90 40 00 	movl   $0x409078,(%esp)
  401729:	89 c1                	mov    %eax,%ecx
  40172b:	e8 74 06 00 00       	call   401da4 <__ZNSt7__cxx1112basic_stringIcSt11char_traitsIcESaIcEEC1EPKcRKS3_>
  401730:	83 ec 08             	sub    $0x8,%esp
  401733:	8d 85 f0 fd ff ff    	lea    -0x210(%ebp),%eax
  401739:	8d 95 04 ff ff ff    	lea    -0xfc(%ebp),%edx
  40173f:	89 14 24             	mov    %edx,(%esp)
  401742:	89 c1                	mov    %eax,%ecx
  401744:	e8 af 3f 00 00       	call   4056f8 <__ZNSt3mapINSt7__cxx1112basic_stringIcSt11char_traitsIcESaIcEEEiSt4lessIS5_ESaISt4pairIKS5_iEEEixEOS5_>
  401749:	83 ec 04             	sub    $0x4,%esp
  40174c:	8b 10                	mov    (%eax),%edx
  40174e:	8d 85 ec fe ff ff    	lea    -0x114(%ebp),%eax
  401754:	89 54 24 04          	mov    %edx,0x4(%esp)
  401758:	89 04 24             	mov    %eax,(%esp)
  40175b:	e8 b0 fc ff ff       	call   401410 <__Z10int2stringB5cxx11i>
        +"b images "+int2string(tot["image"])
  401760:	8d 45 83             	lea    -0x7d(%ebp),%eax
  401763:	89 c1                	mov    %eax,%ecx
  401765:	e8 a2 06 00 00       	call   401e0c <__ZNSaIcEC1Ev>
  40176a:	8d 85 68 ff ff ff    	lea    -0x98(%ebp),%eax
  401770:	8d 55 83             	lea    -0x7d(%ebp),%edx
  401773:	89 54 24 04          	mov    %edx,0x4(%esp)
  401777:	c7 04 24 66 90 40 00 	movl   $0x409066,(%esp)
  40177e:	89 c1                	mov    %eax,%ecx
  401780:	e8 1f 06 00 00       	call   401da4 <__ZNSt7__cxx1112basic_stringIcSt11char_traitsIcESaIcEEC1EPKcRKS3_>
  401785:	83 ec 08             	sub    $0x8,%esp
  401788:	8d 85 f0 fd ff ff    	lea    -0x210(%ebp),%eax
  40178e:	8d 95 68 ff ff ff    	lea    -0x98(%ebp),%edx
  401794:	89 14 24             	mov    %edx,(%esp)
  401797:	89 c1                	mov    %eax,%ecx
  401799:	e8 5a 3f 00 00       	call   4056f8 <__ZNSt3mapINSt7__cxx1112basic_stringIcSt11char_traitsIcESaIcEEEiSt4lessIS5_ESaISt4pairIKS5_iEEEixEOS5_>
  40179e:	83 ec 04             	sub    $0x4,%esp
  4017a1:	8b 10                	mov    (%eax),%edx
  4017a3:	8d 85 50 ff ff ff    	lea    -0xb0(%ebp),%eax
  4017a9:	89 54 24 04          	mov    %edx,0x4(%esp)
  4017ad:	89 04 24             	mov    %eax,(%esp)
  4017b0:	e8 5b fc ff ff       	call   401410 <__Z10int2stringB5cxx11i>
        output[i] = "music "+int2string(tot["music"])
  4017b5:	8d 45 e7             	lea    -0x19(%ebp),%eax
  4017b8:	89 c1                	mov    %eax,%ecx
  4017ba:	e8 4d 06 00 00       	call   401e0c <__ZNSaIcEC1Ev>
  4017bf:	8d 45 cc             	lea    -0x34(%ebp),%eax
  4017c2:	8d 55 e7             	lea    -0x19(%ebp),%edx
  4017c5:	89 54 24 04          	mov    %edx,0x4(%esp)
  4017c9:	c7 04 24 54 90 40 00 	movl   $0x409054,(%esp)
  4017d0:	89 c1                	mov    %eax,%ecx
  4017d2:	e8 cd 05 00 00       	call   401da4 <__ZNSt7__cxx1112basic_stringIcSt11char_traitsIcESaIcEEC1EPKcRKS3_>
  4017d7:	83 ec 08             	sub    $0x8,%esp
  4017da:	8d 85 f0 fd ff ff    	lea    -0x210(%ebp),%eax
  4017e0:	8d 55 cc             	lea    -0x34(%ebp),%edx
  4017e3:	89 14 24             	mov    %edx,(%esp)
  4017e6:	89 c1                	mov    %eax,%ecx
  4017e8:	e8 0b 3f 00 00       	call   4056f8 <__ZNSt3mapINSt7__cxx1112basic_stringIcSt11char_traitsIcESaIcEEEiSt4lessIS5_ESaISt4pairIKS5_iEEEixEOS5_>
  4017ed:	83 ec 04             	sub    $0x4,%esp
  4017f0:	8b 10                	mov    (%eax),%edx
  4017f2:	8d 45 b4             	lea    -0x4c(%ebp),%eax
  4017f5:	89 54 24 04          	mov    %edx,0x4(%esp)
  4017f9:	89 04 24             	mov    %eax,(%esp)
  4017fc:	e8 0f fc ff ff       	call   401410 <__Z10int2stringB5cxx11i>
  401801:	8d 45 9c             	lea    -0x64(%ebp),%eax
  401804:	8d 55 b4             	lea    -0x4c(%ebp),%edx
  401807:	89 54 24 08          	mov    %edx,0x8(%esp)
  40180b:	c7 44 24 04 84 90 40 	movl   $0x409084,0x4(%esp)
  401812:	00 
  401813:	89 04 24             	mov    %eax,(%esp)
  401816:	e8 31 56 00 00       	call   406e4c <__ZStplIcSt11char_traitsIcESaIcEENSt7__cxx1112basic_stringIT_T0_T1_EEPKS5_OS8_>
        +"b images "+int2string(tot["image"])
  40181b:	8d 45 84             	lea    -0x7c(%ebp),%eax
  40181e:	c7 44 24 08 8b 90 40 	movl   $0x40908b,0x8(%esp)
  401825:	00 
  401826:	8d 55 9c             	lea    -0x64(%ebp),%edx
  401829:	89 54 24 04          	mov    %edx,0x4(%esp)
  40182d:	89 04 24             	mov    %eax,(%esp)
  401830:	e8 37 55 00 00       	call   406d6c <__ZStplIcSt11char_traitsIcESaIcEENSt7__cxx1112basic_stringIT_T0_T1_EEOS8_PKS5_>
  401835:	8d 85 38 ff ff ff    	lea    -0xc8(%ebp),%eax
  40183b:	8d 95 50 ff ff ff    	lea    -0xb0(%ebp),%edx
  401841:	89 54 24 08          	mov    %edx,0x8(%esp)
  401845:	8d 55 84             	lea    -0x7c(%ebp),%edx
  401848:	89 54 24 04          	mov    %edx,0x4(%esp)
  40184c:	89 04 24             	mov    %eax,(%esp)
  40184f:	e8 4c 55 00 00       	call   406da0 <__ZStplIcSt11char_traitsIcESaIcEENSt7__cxx1112basic_stringIT_T0_T1_EEOS8_S9_>
        +"b movies "+int2string(tot["movie"])
  401854:	8d 85 20 ff ff ff    	lea    -0xe0(%ebp),%eax
  40185a:	c7 44 24 08 95 90 40 	movl   $0x409095,0x8(%esp)
  401861:	00 
  401862:	8d 95 38 ff ff ff    	lea    -0xc8(%ebp),%edx
  401868:	89 54 24 04          	mov    %edx,0x4(%esp)
  40186c:	89 04 24             	mov    %eax,(%esp)
  40186f:	e8 f8 54 00 00       	call   406d6c <__ZStplIcSt11char_traitsIcESaIcEENSt7__cxx1112basic_stringIT_T0_T1_EEOS8_PKS5_>
  401874:	8d 85 d4 fe ff ff    	lea    -0x12c(%ebp),%eax
  40187a:	8d 95 ec fe ff ff    	lea    -0x114(%ebp),%edx
  401880:	89 54 24 08          	mov    %edx,0x8(%esp)
  401884:	8d 95 20 ff ff ff    	lea    -0xe0(%ebp),%edx
  40188a:	89 54 24 04          	mov    %edx,0x4(%esp)
  40188e:	89 04 24             	mov    %eax,(%esp)
  401891:	e8 0a 55 00 00       	call   406da0 <__ZStplIcSt11char_traitsIcESaIcEENSt7__cxx1112basic_stringIT_T0_T1_EEOS8_S9_>
        +"b other "+int2string(tot["other"])+"b";
  401896:	8d 85 bc fe ff ff    	lea    -0x144(%ebp),%eax
  40189c:	c7 44 24 08 9f 90 40 	movl   $0x40909f,0x8(%esp)
  4018a3:	00 
  4018a4:	8d 95 d4 fe ff ff    	lea    -0x12c(%ebp),%edx
  4018aa:	89 54 24 04          	mov    %edx,0x4(%esp)
  4018ae:	89 04 24             	mov    %eax,(%esp)
  4018b1:	e8 b6 54 00 00       	call   406d6c <__ZStplIcSt11char_traitsIcESaIcEENSt7__cxx1112basic_stringIT_T0_T1_EEOS8_PKS5_>
  4018b6:	8d 85 70 fe ff ff    	lea    -0x190(%ebp),%eax
  4018bc:	8d 95 88 fe ff ff    	lea    -0x178(%ebp),%edx
  4018c2:	89 54 24 08          	mov    %edx,0x8(%esp)
  4018c6:	8d 95 bc fe ff ff    	lea    -0x144(%ebp),%edx
  4018cc:	89 54 24 04          	mov    %edx,0x4(%esp)
  4018d0:	89 04 24             	mov    %eax,(%esp)
  4018d3:	e8 c8 54 00 00       	call   406da0 <__ZStplIcSt11char_traitsIcESaIcEENSt7__cxx1112basic_stringIT_T0_T1_EEOS8_S9_>
  4018d8:	8d 85 58 fe ff ff    	lea    -0x1a8(%ebp),%eax
  4018de:	c7 44 24 08 a8 90 40 	movl   $0x4090a8,0x8(%esp)
  4018e5:	00 
  4018e6:	8d 95 70 fe ff ff    	lea    -0x190(%ebp),%edx
  4018ec:	89 54 24 04          	mov    %edx,0x4(%esp)
  4018f0:	89 04 24             	mov    %eax,(%esp)
  4018f3:	e8 74 54 00 00       	call   406d6c <__ZStplIcSt11char_traitsIcESaIcEENSt7__cxx1112basic_stringIT_T0_T1_EEOS8_PKS5_>
        output[i] = "music "+int2string(tot["music"])
  4018f8:	8b 55 f0             	mov    -0x10(%ebp),%edx
  4018fb:	8d 85 08 fe ff ff    	lea    -0x1f8(%ebp),%eax
  401901:	89 14 24             	mov    %edx,(%esp)
  401904:	89 c1                	mov    %eax,%ecx
  401906:	e8 fd 42 00 00       	call   405c08 <__ZNSt6vectorINSt7__cxx1112basic_stringIcSt11char_traitsIcESaIcEEESaIS5_EEixEj>
  40190b:	83 ec 04             	sub    $0x4,%esp
  40190e:	89 c2                	mov    %eax,%edx
        +"b other "+int2string(tot["other"])+"b";
  401910:	8d 85 58 fe ff ff    	lea    -0x1a8(%ebp),%eax
  401916:	89 04 24             	mov    %eax,(%esp)
  401919:	89 d1                	mov    %edx,%ecx
  40191b:	e8 64 04 00 00       	call   401d84 <__ZNSt7__cxx1112basic_stringIcSt11char_traitsIcESaIcEEaSEOS4_>
  401920:	83 ec 04             	sub    $0x4,%esp
  401923:	8d 85 58 fe ff ff    	lea    -0x1a8(%ebp),%eax
  401929:	89 c1                	mov    %eax,%ecx
  40192b:	e8 5c 04 00 00       	call   401d8c <__ZNSt7__cxx1112basic_stringIcSt11char_traitsIcESaIcEED1Ev>
  401930:	8d 85 70 fe ff ff    	lea    -0x190(%ebp),%eax
  401936:	89 c1                	mov    %eax,%ecx
  401938:	e8 4f 04 00 00       	call   401d8c <__ZNSt7__cxx1112basic_stringIcSt11char_traitsIcESaIcEED1Ev>
  40193d:	8d 85 bc fe ff ff    	lea    -0x144(%ebp),%eax
  401943:	89 c1                	mov    %eax,%ecx
  401945:	e8 42 04 00 00       	call   401d8c <__ZNSt7__cxx1112basic_stringIcSt11char_traitsIcESaIcEED1Ev>
        +"b movies "+int2string(tot["movie"])
  40194a:	8d 85 d4 fe ff ff    	lea    -0x12c(%ebp),%eax
  401950:	89 c1                	mov    %eax,%ecx
  401952:	e8 35 04 00 00       	call   401d8c <__ZNSt7__cxx1112basic_stringIcSt11char_traitsIcESaIcEED1Ev>
  401957:	8d 85 20 ff ff ff    	lea    -0xe0(%ebp),%eax
  40195d:	89 c1                	mov    %eax,%ecx
  40195f:	e8 28 04 00 00       	call   401d8c <__ZNSt7__cxx1112basic_stringIcSt11char_traitsIcESaIcEED1Ev>
        +"b images "+int2string(tot["image"])
  401964:	8d 85 38 ff ff ff    	lea    -0xc8(%ebp),%eax
  40196a:	89 c1                	mov    %eax,%ecx
  40196c:	e8 1b 04 00 00       	call   401d8c <__ZNSt7__cxx1112basic_stringIcSt11char_traitsIcESaIcEED1Ev>
  401971:	8d 45 84             	lea    -0x7c(%ebp),%eax
  401974:	89 c1                	mov    %eax,%ecx
  401976:	e8 11 04 00 00       	call   401d8c <__ZNSt7__cxx1112basic_stringIcSt11char_traitsIcESaIcEED1Ev>
        output[i] = "music "+int2string(tot["music"])
  40197b:	8d 45 9c             	lea    -0x64(%ebp),%eax
  40197e:	89 c1                	mov    %eax,%ecx
  401980:	e8 07 04 00 00       	call   401d8c <__ZNSt7__cxx1112basic_stringIcSt11char_traitsIcESaIcEED1Ev>
  401985:	8d 45 b4             	lea    -0x4c(%ebp),%eax
  401988:	89 c1                	mov    %eax,%ecx
  40198a:	e8 fd 03 00 00       	call   401d8c <__ZNSt7__cxx1112basic_stringIcSt11char_traitsIcESaIcEED1Ev>
  40198f:	8d 45 cc             	lea    -0x34(%ebp),%eax
  401992:	89 c1                	mov    %eax,%ecx
  401994:	e8 f3 03 00 00       	call   401d8c <__ZNSt7__cxx1112basic_stringIcSt11char_traitsIcESaIcEED1Ev>
  401999:	8d 45 e7             	lea    -0x19(%ebp),%eax
  40199c:	89 c1                	mov    %eax,%ecx
  40199e:	e8 61 04 00 00       	call   401e04 <__ZNSaIcED1Ev>
        +"b images "+int2string(tot["image"])
  4019a3:	8d 85 50 ff ff ff    	lea    -0xb0(%ebp),%eax
  4019a9:	89 c1                	mov    %eax,%ecx
  4019ab:	e8 dc 03 00 00       	call   401d8c <__ZNSt7__cxx1112basic_stringIcSt11char_traitsIcESaIcEED1Ev>
  4019b0:	8d 85 68 ff ff ff    	lea    -0x98(%ebp),%eax
  4019b6:	89 c1                	mov    %eax,%ecx
  4019b8:	e8 cf 03 00 00       	call   401d8c <__ZNSt7__cxx1112basic_stringIcSt11char_traitsIcESaIcEED1Ev>
  4019bd:	8d 45 83             	lea    -0x7d(%ebp),%eax
  4019c0:	89 c1                	mov    %eax,%ecx
  4019c2:	e8 3d 04 00 00       	call   401e04 <__ZNSaIcED1Ev>
        +"b movies "+int2string(tot["movie"])
  4019c7:	8d 85 ec fe ff ff    	lea    -0x114(%ebp),%eax
  4019cd:	89 c1                	mov    %eax,%ecx
  4019cf:	e8 b8 03 00 00       	call   401d8c <__ZNSt7__cxx1112basic_stringIcSt11char_traitsIcESaIcEED1Ev>
  4019d4:	8d 85 04 ff ff ff    	lea    -0xfc(%ebp),%eax
  4019da:	89 c1                	mov    %eax,%ecx
  4019dc:	e8 ab 03 00 00       	call   401d8c <__ZNSt7__cxx1112basic_stringIcSt11char_traitsIcESaIcEED1Ev>
  4019e1:	8d 85 1f ff ff ff    	lea    -0xe1(%ebp),%eax
  4019e7:	89 c1                	mov    %eax,%ecx
  4019e9:	e8 16 04 00 00       	call   401e04 <__ZNSaIcED1Ev>
        +"b other "+int2string(tot["other"])+"b";
  4019ee:	8d 85 88 fe ff ff    	lea    -0x178(%ebp),%eax
  4019f4:	89 c1                	mov    %eax,%ecx
  4019f6:	e8 91 03 00 00       	call   401d8c <__ZNSt7__cxx1112basic_stringIcSt11char_traitsIcESaIcEED1Ev>
  4019fb:	8d 85 a0 fe ff ff    	lea    -0x160(%ebp),%eax
  401a01:	89 c1                	mov    %eax,%ecx
  401a03:	e8 84 03 00 00       	call   401d8c <__ZNSt7__cxx1112basic_stringIcSt11char_traitsIcESaIcEED1Ev>
  401a08:	8d 85 bb fe ff ff    	lea    -0x145(%ebp),%eax
  401a0e:	89 c1                	mov    %eax,%ecx
  401a10:	e8 ef 03 00 00       	call   401e04 <__ZNSaIcED1Ev>
        map <string,int> tot;
  401a15:	8d 85 f0 fd ff ff    	lea    -0x210(%ebp),%eax
  401a1b:	89 c1                	mov    %eax,%ecx
  401a1d:	e8 be 3c 00 00       	call   4056e0 <__ZNSt3mapINSt7__cxx1112basic_stringIcSt11char_traitsIcESaIcEEEiSt4lessIS5_ESaISt4pairIKS5_iEEED1Ev>
    for(int i=0;i<q;i++)
  401a22:	83 45 f0 01          	addl   $0x1,-0x10(%ebp)
  401a26:	e9 a3 fb ff ff       	jmp    4015ce <__fu2___ZSt3cin+0x13>
    }
    for(int i=0;i<q;i++)
  401a2b:	c7 45 e8 00 00 00 00 	movl   $0x0,-0x18(%ebp)
  401a32:	8b 85 38 fe ff ff    	mov    -0x1c8(%ebp),%eax
  401a38:	39 45 e8             	cmp    %eax,-0x18(%ebp)
  401a3b:	7d 3d                	jge    401a7a <__fu4___ZSt4cout+0x20>
    {
        cout << output[i] << endl;
  401a3d:	8b 55 e8             	mov    -0x18(%ebp),%edx
  401a40:	8d 85 08 fe ff ff    	lea    -0x1f8(%ebp),%eax
  401a46:	89 14 24             	mov    %edx,(%esp)
  401a49:	89 c1                	mov    %eax,%ecx
  401a4b:	e8 b8 41 00 00       	call   405c08 <__ZNSt6vectorINSt7__cxx1112basic_stringIcSt11char_traitsIcESaIcEEESaIS5_EEixEj>
  401a50:	83 ec 04             	sub    $0x4,%esp
  401a53:	89 44 24 04          	mov    %eax,0x4(%esp)
  401a57:	c7                   	.byte 0xc7
  401a58:	04 24                	add    $0x24,%al

00401a5a <__fu4___ZSt4cout>:
  401a5a:	94                   	xchg   %eax,%esp
  401a5b:	f3 40                	repz inc %eax
  401a5d:	00 e8                	add    %ch,%al
  401a5f:	a1 02 00 00 c7       	mov    0xc7000002,%eax
  401a64:	04 24                	add    $0x24,%al
  401a66:	1c 1d                	sbb    $0x1d,%al
  401a68:	40                   	inc    %eax
  401a69:	00 89 c1 e8 7b 03    	add    %cl,0x37be8c1(%ecx)
  401a6f:	00 00                	add    %al,(%eax)
  401a71:	83 ec 04             	sub    $0x4,%esp
    for(int i=0;i<q;i++)
  401a74:	83 45 e8 01          	addl   $0x1,-0x18(%ebp)
  401a78:	eb b8                	jmp    401a32 <__fu3___ZSt3cin+0x40e>
    }
    return 0;
  401a7a:	bb 00 00 00 00       	mov    $0x0,%ebx
    vector <string> output(q);
  401a7f:	8d 85 08 fe ff ff    	lea    -0x1f8(%ebp),%eax
  401a85:	89 c1                	mov    %eax,%ecx
  401a87:	e8 3c 41 00 00       	call   405bc8 <__ZNSt6vectorINSt7__cxx1112basic_stringIcSt11char_traitsIcESaIcEEESaIS5_EED1Ev>
    vector <int> filecount(q);
  401a8c:	8d 85 14 fe ff ff    	lea    -0x1ec(%ebp),%eax
  401a92:	89 c1                	mov    %eax,%ecx
  401a94:	e8 23 42 00 00       	call   405cbc <__ZNSt6vectorIiSaIiEED1Ev>
    string input;
  401a99:	8d 85 20 fe ff ff    	lea    -0x1e0(%ebp),%eax
  401a9f:	89 c1                	mov    %eax,%ecx
  401aa1:	e8 e6 02 00 00       	call   401d8c <__ZNSt7__cxx1112basic_stringIcSt11char_traitsIcESaIcEED1Ev>
  401aa6:	89 d8                	mov    %ebx,%eax
  401aa8:	e9 b9 01 00 00       	jmp    401c66 <__fu4___ZSt4cout+0x20c>
  401aad:	89 c3                	mov    %eax,%ebx
  401aaf:	8d 85 3e fe ff ff    	lea    -0x1c2(%ebp),%eax
  401ab5:	89 c1                	mov    %eax,%ecx
  401ab7:	e8 f8 33 00 00       	call   404eb4 <__ZNSaIiED1Ev>
  401abc:	e9 8e 01 00 00       	jmp    401c4f <__fu4___ZSt4cout+0x1f5>
  401ac1:	89 c3                	mov    %eax,%ebx
  401ac3:	8d 85 3f fe ff ff    	lea    -0x1c1(%ebp),%eax
  401ac9:	89 c1                	mov    %eax,%ecx
  401acb:	e8 48 33 00 00       	call   404e18 <__ZNSaINSt7__cxx1112basic_stringIcSt11char_traitsIcESaIcEEEED1Ev>
  401ad0:	e9 6d 01 00 00       	jmp    401c42 <__fu4___ZSt4cout+0x1e8>
  401ad5:	89 c3                	mov    %eax,%ebx
  401ad7:	8d 85 40 fe ff ff    	lea    -0x1c0(%ebp),%eax
  401add:	89 c1                	mov    %eax,%ecx
  401adf:	e8 a8 02 00 00       	call   401d8c <__ZNSt7__cxx1112basic_stringIcSt11char_traitsIcESaIcEED1Ev>
  401ae4:	e9 3b 01 00 00       	jmp    401c24 <__fu4___ZSt4cout+0x1ca>
  401ae9:	89 c3                	mov    %eax,%ebx
            file F(input);
  401aeb:	8d 85 a4 fd ff ff    	lea    -0x25c(%ebp),%eax
  401af1:	89 c1                	mov    %eax,%ecx
  401af3:	e8 4c 2e 00 00       	call   404944 <__ZN4fileD1Ev>
  401af8:	e9 27 01 00 00       	jmp    401c24 <__fu4___ZSt4cout+0x1ca>
  401afd:	89 c3                	mov    %eax,%ebx
        +"b other "+int2string(tot["other"])+"b";
  401aff:	8d 85 70 fe ff ff    	lea    -0x190(%ebp),%eax
  401b05:	89 c1                	mov    %eax,%ecx
  401b07:	e8 80 02 00 00       	call   401d8c <__ZNSt7__cxx1112basic_stringIcSt11char_traitsIcESaIcEED1Ev>
  401b0c:	eb 02                	jmp    401b10 <__fu4___ZSt4cout+0xb6>
  401b0e:	89 c3                	mov    %eax,%ebx
  401b10:	8d 85 bc fe ff ff    	lea    -0x144(%ebp),%eax
  401b16:	89 c1                	mov    %eax,%ecx
  401b18:	e8 6f 02 00 00       	call   401d8c <__ZNSt7__cxx1112basic_stringIcSt11char_traitsIcESaIcEED1Ev>
  401b1d:	eb 02                	jmp    401b21 <__fu4___ZSt4cout+0xc7>
  401b1f:	89 c3                	mov    %eax,%ebx
        +"b movies "+int2string(tot["movie"])
  401b21:	8d 85 d4 fe ff ff    	lea    -0x12c(%ebp),%eax
  401b27:	89 c1                	mov    %eax,%ecx
  401b29:	e8 5e 02 00 00       	call   401d8c <__ZNSt7__cxx1112basic_stringIcSt11char_traitsIcESaIcEED1Ev>
  401b2e:	eb 02                	jmp    401b32 <__fu4___ZSt4cout+0xd8>
  401b30:	89 c3                	mov    %eax,%ebx
  401b32:	8d 85 20 ff ff ff    	lea    -0xe0(%ebp),%eax
  401b38:	89 c1                	mov    %eax,%ecx
  401b3a:	e8 4d 02 00 00       	call   401d8c <__ZNSt7__cxx1112basic_stringIcSt11char_traitsIcESaIcEED1Ev>
  401b3f:	eb 02                	jmp    401b43 <__fu4___ZSt4cout+0xe9>
  401b41:	89 c3                	mov    %eax,%ebx
        +"b images "+int2string(tot["image"])
  401b43:	8d 85 38 ff ff ff    	lea    -0xc8(%ebp),%eax
  401b49:	89 c1                	mov    %eax,%ecx
  401b4b:	e8 3c 02 00 00       	call   401d8c <__ZNSt7__cxx1112basic_stringIcSt11char_traitsIcESaIcEED1Ev>
  401b50:	eb 02                	jmp    401b54 <__fu4___ZSt4cout+0xfa>
  401b52:	89 c3                	mov    %eax,%ebx
  401b54:	8d 45 84             	lea    -0x7c(%ebp),%eax
  401b57:	89 c1                	mov    %eax,%ecx
  401b59:	e8 2e 02 00 00       	call   401d8c <__ZNSt7__cxx1112basic_stringIcSt11char_traitsIcESaIcEED1Ev>
  401b5e:	eb 02                	jmp    401b62 <__fu4___ZSt4cout+0x108>
  401b60:	89 c3                	mov    %eax,%ebx
        output[i] = "music "+int2string(tot["music"])
  401b62:	8d 45 9c             	lea    -0x64(%ebp),%eax
  401b65:	89 c1                	mov    %eax,%ecx
  401b67:	e8 20 02 00 00       	call   401d8c <__ZNSt7__cxx1112basic_stringIcSt11char_traitsIcESaIcEED1Ev>
  401b6c:	eb 02                	jmp    401b70 <__fu4___ZSt4cout+0x116>
  401b6e:	89 c3                	mov    %eax,%ebx
  401b70:	8d 45 b4             	lea    -0x4c(%ebp),%eax
  401b73:	89 c1                	mov    %eax,%ecx
  401b75:	e8 12 02 00 00       	call   401d8c <__ZNSt7__cxx1112basic_stringIcSt11char_traitsIcESaIcEED1Ev>
  401b7a:	eb 02                	jmp    401b7e <__fu4___ZSt4cout+0x124>
  401b7c:	89 c3                	mov    %eax,%ebx
  401b7e:	8d 45 cc             	lea    -0x34(%ebp),%eax
  401b81:	89 c1                	mov    %eax,%ecx
  401b83:	e8 04 02 00 00       	call   401d8c <__ZNSt7__cxx1112basic_stringIcSt11char_traitsIcESaIcEED1Ev>
  401b88:	eb 02                	jmp    401b8c <__fu4___ZSt4cout+0x132>
  401b8a:	89 c3                	mov    %eax,%ebx
  401b8c:	8d 45 e7             	lea    -0x19(%ebp),%eax
  401b8f:	89 c1                	mov    %eax,%ecx
  401b91:	e8 6e 02 00 00       	call   401e04 <__ZNSaIcED1Ev>
        +"b images "+int2string(tot["image"])
  401b96:	8d 85 50 ff ff ff    	lea    -0xb0(%ebp),%eax
  401b9c:	89 c1                	mov    %eax,%ecx
  401b9e:	e8 e9 01 00 00       	call   401d8c <__ZNSt7__cxx1112basic_stringIcSt11char_traitsIcESaIcEED1Ev>
  401ba3:	eb 02                	jmp    401ba7 <__fu4___ZSt4cout+0x14d>
  401ba5:	89 c3                	mov    %eax,%ebx
  401ba7:	8d 85 68 ff ff ff    	lea    -0x98(%ebp),%eax
  401bad:	89 c1                	mov    %eax,%ecx
  401baf:	e8 d8 01 00 00       	call   401d8c <__ZNSt7__cxx1112basic_stringIcSt11char_traitsIcESaIcEED1Ev>
  401bb4:	eb 02                	jmp    401bb8 <__fu4___ZSt4cout+0x15e>
  401bb6:	89 c3                	mov    %eax,%ebx
  401bb8:	8d 45 83             	lea    -0x7d(%ebp),%eax
  401bbb:	89 c1                	mov    %eax,%ecx
  401bbd:	e8 42 02 00 00       	call   401e04 <__ZNSaIcED1Ev>
        +"b movies "+int2string(tot["movie"])
  401bc2:	8d 85 ec fe ff ff    	lea    -0x114(%ebp),%eax
  401bc8:	89 c1                	mov    %eax,%ecx
  401bca:	e8 bd 01 00 00       	call   401d8c <__ZNSt7__cxx1112basic_stringIcSt11char_traitsIcESaIcEED1Ev>
  401bcf:	eb 02                	jmp    401bd3 <__fu4___ZSt4cout+0x179>
  401bd1:	89 c3                	mov    %eax,%ebx
  401bd3:	8d 85 04 ff ff ff    	lea    -0xfc(%ebp),%eax
  401bd9:	89 c1                	mov    %eax,%ecx
  401bdb:	e8 ac 01 00 00       	call   401d8c <__ZNSt7__cxx1112basic_stringIcSt11char_traitsIcESaIcEED1Ev>
  401be0:	eb 02                	jmp    401be4 <__fu4___ZSt4cout+0x18a>
  401be2:	89 c3                	mov    %eax,%ebx
  401be4:	8d 85 1f ff ff ff    	lea    -0xe1(%ebp),%eax
  401bea:	89 c1                	mov    %eax,%ecx
  401bec:	e8 13 02 00 00       	call   401e04 <__ZNSaIcED1Ev>
        +"b other "+int2string(tot["other"])+"b";
  401bf1:	8d 85 88 fe ff ff    	lea    -0x178(%ebp),%eax
  401bf7:	89 c1                	mov    %eax,%ecx
  401bf9:	e8 8e 01 00 00       	call   401d8c <__ZNSt7__cxx1112basic_stringIcSt11char_traitsIcESaIcEED1Ev>
  401bfe:	eb 02                	jmp    401c02 <__fu4___ZSt4cout+0x1a8>
  401c00:	89 c3                	mov    %eax,%ebx
  401c02:	8d 85 a0 fe ff ff    	lea    -0x160(%ebp),%eax
  401c08:	89 c1                	mov    %eax,%ecx
  401c0a:	e8 7d 01 00 00       	call   401d8c <__ZNSt7__cxx1112basic_stringIcSt11char_traitsIcESaIcEED1Ev>
  401c0f:	eb 02                	jmp    401c13 <__fu4___ZSt4cout+0x1b9>
  401c11:	89 c3                	mov    %eax,%ebx
  401c13:	8d 85 bb fe ff ff    	lea    -0x145(%ebp),%eax
  401c19:	89 c1                	mov    %eax,%ecx
  401c1b:	e8 e4 01 00 00       	call   401e04 <__ZNSaIcED1Ev>
  401c20:	eb 02                	jmp    401c24 <__fu4___ZSt4cout+0x1ca>
  401c22:	89 c3                	mov    %eax,%ebx
        map <string,int> tot;
  401c24:	8d 85 f0 fd ff ff    	lea    -0x210(%ebp),%eax
  401c2a:	89 c1                	mov    %eax,%ecx
  401c2c:	e8 af 3a 00 00       	call   4056e0 <__ZNSt3mapINSt7__cxx1112basic_stringIcSt11char_traitsIcESaIcEEEiSt4lessIS5_ESaISt4pairIKS5_iEEED1Ev>
  401c31:	eb 02                	jmp    401c35 <__fu4___ZSt4cout+0x1db>
  401c33:	89 c3                	mov    %eax,%ebx
    vector <string> output(q);
  401c35:	8d 85 08 fe ff ff    	lea    -0x1f8(%ebp),%eax
  401c3b:	89 c1                	mov    %eax,%ecx
  401c3d:	e8 86 3f 00 00       	call   405bc8 <__ZNSt6vectorINSt7__cxx1112basic_stringIcSt11char_traitsIcESaIcEEESaIS5_EED1Ev>
    vector <int> filecount(q);
  401c42:	8d 85 14 fe ff ff    	lea    -0x1ec(%ebp),%eax
  401c48:	89 c1                	mov    %eax,%ecx
  401c4a:	e8 6d 40 00 00       	call   405cbc <__ZNSt6vectorIiSaIiEED1Ev>
    string input;
  401c4f:	8d 85 20 fe ff ff    	lea    -0x1e0(%ebp),%eax
  401c55:	89 c1                	mov    %eax,%ecx
  401c57:	e8 30 01 00 00       	call   401d8c <__ZNSt7__cxx1112basic_stringIcSt11char_traitsIcESaIcEED1Ev>
  401c5c:	89 d8                	mov    %ebx,%eax
  401c5e:	89 04 24             	mov    %eax,(%esp)
  401c61:	e8 8a 0d 00 00       	call   4029f0 <__Unwind_Resume>
  401c66:	8d 65 f8             	lea    -0x8(%ebp),%esp
  401c69:	59                   	pop    %ecx
  401c6a:	5b                   	pop    %ebx
  401c6b:	5d                   	pop    %ebp
  401c6c:	8d 61 fc             	lea    -0x4(%ecx),%esp
  401c6f:	c3                   	ret    

00401c70 <___tcf_0>:
  extern wostream wclog;	/// Linked to standard error (buffered)
#endif
  //@}

  // For construction of filebuffers for cout, cin, cerr, clog et. al.
  static ios_base::Init __ioinit;
  401c70:	55                   	push   %ebp
  401c71:	89 e5                	mov    %esp,%ebp
  401c73:	83 ec 08             	sub    $0x8,%esp
  401c76:	b9 20 e0 40 00       	mov    $0x40e020,%ecx
  401c7b:	e8 c4 00 00 00       	call   401d44 <__ZNSt8ios_base4InitD1Ev>
  401c80:	c9                   	leave  
  401c81:	c3                   	ret    

00401c82 <__Z41__static_initialization_and_destruction_0ii>:
  401c82:	55                   	push   %ebp
  401c83:	89 e5                	mov    %esp,%ebp
  401c85:	83 ec 18             	sub    $0x18,%esp
  401c88:	83 7d 08 01          	cmpl   $0x1,0x8(%ebp)
  401c8c:	75 1f                	jne    401cad <__Z41__static_initialization_and_destruction_0ii+0x2b>
  401c8e:	81 7d 0c ff ff 00 00 	cmpl   $0xffff,0xc(%ebp)
  401c95:	75 16                	jne    401cad <__Z41__static_initialization_and_destruction_0ii+0x2b>
  401c97:	b9 20 e0 40 00       	mov    $0x40e020,%ecx
  401c9c:	e8 ab 00 00 00       	call   401d4c <__ZNSt8ios_base4InitC1Ev>
  401ca1:	c7 04 24 70 1c 40 00 	movl   $0x401c70,(%esp)
  401ca8:	e8 63 f6 ff ff       	call   401310 <_atexit>
  401cad:	90                   	nop
  401cae:	c9                   	leave  
  401caf:	c3                   	ret    

00401cb0 <__GLOBAL__sub_I__Z10int2stringB5cxx11i>:
  401cb0:	55                   	push   %ebp
  401cb1:	89 e5                	mov    %esp,%ebp
  401cb3:	83 ec 18             	sub    $0x18,%esp
  401cb6:	c7 44 24 04 ff ff 00 	movl   $0xffff,0x4(%esp)
  401cbd:	00 
  401cbe:	c7 04 24 01 00 00 00 	movl   $0x1,(%esp)
  401cc5:	e8 b8 ff ff ff       	call   401c82 <__Z41__static_initialization_and_destruction_0ii>
  401cca:	c9                   	leave  
  401ccb:	c3                   	ret    

00401ccc <___gxx_personality_v0>:
  401ccc:	ff 25 c0 f3 40 00    	jmp    *0x40f3c0
  401cd2:	90                   	nop
  401cd3:	90                   	nop

00401cd4 <___cxa_rethrow>:
  401cd4:	ff 25 bc f3 40 00    	jmp    *0x40f3bc
  401cda:	90                   	nop
  401cdb:	90                   	nop

00401cdc <___cxa_end_catch>:
  401cdc:	ff 25 b8 f3 40 00    	jmp    *0x40f3b8
  401ce2:	90                   	nop
  401ce3:	90                   	nop

00401ce4 <___cxa_begin_catch>:
  401ce4:	ff 25 b4 f3 40 00    	jmp    *0x40f3b4
  401cea:	90                   	nop
  401ceb:	90                   	nop

00401cec <__Znwj>:
  401cec:	ff 25 b0 f3 40 00    	jmp    *0x40f3b0
  401cf2:	90                   	nop
  401cf3:	90                   	nop

00401cf4 <__ZdlPv>:
  401cf4:	ff 25 ac f3 40 00    	jmp    *0x40f3ac
  401cfa:	90                   	nop
  401cfb:	90                   	nop

00401cfc <__ZStrsIcSt11char_traitsIcESaIcEERSt13basic_istreamIT_T0_ES7_RNSt7__cxx1112basic_stringIS4_S5_T1_EE>:
  401cfc:	ff 25 a8 f3 40 00    	jmp    *0x40f3a8
  401d02:	90                   	nop
  401d03:	90                   	nop

00401d04 <__ZStlsIcSt11char_traitsIcESaIcEERSt13basic_ostreamIT_T0_ES7_RKNSt7__cxx1112basic_stringIS4_S5_T1_EE>:
  401d04:	ff 25 a4 f3 40 00    	jmp    *0x40f3a4
  401d0a:	90                   	nop
  401d0b:	90                   	nop

00401d0c <__ZSt7getlineIcSt11char_traitsIcESaIcEERSt13basic_istreamIT_T0_ES7_RNSt7__cxx1112basic_stringIS4_S5_T1_EES4_>:
  401d0c:	ff 25 a0 f3 40 00    	jmp    *0x40f3a0
  401d12:	90                   	nop
  401d13:	90                   	nop

00401d14 <__ZSt7getlineIcSt11char_traitsIcESaIcEERSt13basic_istreamIT_T0_ES7_RNSt7__cxx1112basic_stringIS4_S5_T1_EE>:
  401d14:	ff 25 9c f3 40 00    	jmp    *0x40f39c
  401d1a:	90                   	nop
  401d1b:	90                   	nop

00401d1c <__ZSt4endlIcSt11char_traitsIcEERSt13basic_ostreamIT_T0_ES6_>:
  401d1c:	ff 25 98 f3 40 00    	jmp    *0x40f398
  401d22:	90                   	nop
  401d23:	90                   	nop

00401d24 <__ZSt29_Rb_tree_insert_and_rebalancebPSt18_Rb_tree_node_baseS0_RS_>:
  401d24:	ff 25 8c f3 40 00    	jmp    *0x40f38c
  401d2a:	90                   	nop
  401d2b:	90                   	nop

00401d2c <__ZSt18_Rb_tree_incrementPSt18_Rb_tree_node_base>:
  401d2c:	ff 25 88 f3 40 00    	jmp    *0x40f388
  401d32:	90                   	nop
  401d33:	90                   	nop

00401d34 <__ZSt18_Rb_tree_decrementPSt18_Rb_tree_node_base>:
  401d34:	ff 25 84 f3 40 00    	jmp    *0x40f384
  401d3a:	90                   	nop
  401d3b:	90                   	nop

00401d3c <__ZSt17__throw_bad_allocv>:
  401d3c:	ff 25 80 f3 40 00    	jmp    *0x40f380
  401d42:	90                   	nop
  401d43:	90                   	nop

00401d44 <__ZNSt8ios_base4InitD1Ev>:
  401d44:	ff 25 7c f3 40 00    	jmp    *0x40f37c
  401d4a:	90                   	nop
  401d4b:	90                   	nop

00401d4c <__ZNSt8ios_base4InitC1Ev>:
  401d4c:	ff 25 78 f3 40 00    	jmp    *0x40f378
  401d52:	90                   	nop
  401d53:	90                   	nop

00401d54 <__ZNSt7__cxx1119basic_istringstreamIcSt11char_traitsIcESaIcEED1Ev>:
  401d54:	ff 25 74 f3 40 00    	jmp    *0x40f374
  401d5a:	90                   	nop
  401d5b:	90                   	nop

00401d5c <__ZNSt7__cxx1119basic_istringstreamIcSt11char_traitsIcESaIcEEC1ERKNS_12basic_stringIcS2_S3_EESt13_Ios_Openmode>:
  401d5c:	ff 25 70 f3 40 00    	jmp    *0x40f370
  401d62:	90                   	nop
  401d63:	90                   	nop

00401d64 <__ZNSt7__cxx1118basic_stringstreamIcSt11char_traitsIcESaIcEED1Ev>:
  401d64:	ff 25 6c f3 40 00    	jmp    *0x40f36c
  401d6a:	90                   	nop
  401d6b:	90                   	nop

00401d6c <__ZNSt7__cxx1118basic_stringstreamIcSt11char_traitsIcESaIcEEC1ESt13_Ios_Openmode>:
  401d6c:	ff 25 68 f3 40 00    	jmp    *0x40f368
  401d72:	90                   	nop
  401d73:	90                   	nop

00401d74 <__ZNSt7__cxx1118basic_stringstreamIcSt11char_traitsIcESaIcEEC1ERKNS_12basic_stringIcS2_S3_EESt13_Ios_Openmode>:
  401d74:	ff 25 64 f3 40 00    	jmp    *0x40f364
  401d7a:	90                   	nop
  401d7b:	90                   	nop

00401d7c <__ZNSt7__cxx1112basic_stringIcSt11char_traitsIcESaIcEEaSEPKc>:
  401d7c:	ff 25 60 f3 40 00    	jmp    *0x40f360
  401d82:	90                   	nop
  401d83:	90                   	nop

00401d84 <__ZNSt7__cxx1112basic_stringIcSt11char_traitsIcESaIcEEaSEOS4_>:
  401d84:	ff 25 5c f3 40 00    	jmp    *0x40f35c
  401d8a:	90                   	nop
  401d8b:	90                   	nop

00401d8c <__ZNSt7__cxx1112basic_stringIcSt11char_traitsIcESaIcEED1Ev>:
  401d8c:	ff 25 58 f3 40 00    	jmp    *0x40f358
  401d92:	90                   	nop
  401d93:	90                   	nop

00401d94 <__ZNSt7__cxx1112basic_stringIcSt11char_traitsIcESaIcEEC1Ev>:
  401d94:	ff 25 54 f3 40 00    	jmp    *0x40f354
  401d9a:	90                   	nop
  401d9b:	90                   	nop

00401d9c <__ZNSt7__cxx1112basic_stringIcSt11char_traitsIcESaIcEEC1ERKS4_>:
  401d9c:	ff 25 50 f3 40 00    	jmp    *0x40f350
  401da2:	90                   	nop
  401da3:	90                   	nop

00401da4 <__ZNSt7__cxx1112basic_stringIcSt11char_traitsIcESaIcEEC1EPKcRKS3_>:
  401da4:	ff 25 4c f3 40 00    	jmp    *0x40f34c
  401daa:	90                   	nop
  401dab:	90                   	nop

00401dac <__ZNSt7__cxx1112basic_stringIcSt11char_traitsIcESaIcEEC1EOS4_>:
  401dac:	ff 25 48 f3 40 00    	jmp    *0x40f348
  401db2:	90                   	nop
  401db3:	90                   	nop

00401db4 <__ZNSt7__cxx1112basic_stringIcSt11char_traitsIcESaIcEE6insertEjRKS4_>:
  401db4:	ff 25 44 f3 40 00    	jmp    *0x40f344
  401dba:	90                   	nop
  401dbb:	90                   	nop

00401dbc <__ZNSt7__cxx1112basic_stringIcSt11char_traitsIcESaIcEE6insertEjPKc>:
  401dbc:	ff 25 40 f3 40 00    	jmp    *0x40f340
  401dc2:	90                   	nop
  401dc3:	90                   	nop

00401dc4 <__ZNSt7__cxx1112basic_stringIcSt11char_traitsIcESaIcEE6appendERKS4_>:
  401dc4:	ff 25 3c f3 40 00    	jmp    *0x40f33c
  401dca:	90                   	nop
  401dcb:	90                   	nop

00401dcc <__ZNSt7__cxx1112basic_stringIcSt11char_traitsIcESaIcEE6appendEPKc>:
  401dcc:	ff 25 38 f3 40 00    	jmp    *0x40f338
  401dd2:	90                   	nop
  401dd3:	90                   	nop

00401dd4 <__ZNSt7__cxx1112basic_stringIcSt11char_traitsIcESaIcEE5beginEv>:
  401dd4:	ff 25 34 f3 40 00    	jmp    *0x40f334
  401dda:	90                   	nop
  401ddb:	90                   	nop

00401ddc <__ZNSt7__cxx1112basic_stringIcSt11char_traitsIcESaIcEE3endEv>:
  401ddc:	ff 25 30 f3 40 00    	jmp    *0x40f330
  401de2:	90                   	nop
  401de3:	90                   	nop

00401de4 <__ZNSolsEi>:
  401de4:	ff 25 2c f3 40 00    	jmp    *0x40f32c
  401dea:	90                   	nop
  401deb:	90                   	nop

00401dec <__ZNSolsEPFRSoS_E>:
  401dec:	ff 25 28 f3 40 00    	jmp    *0x40f328
  401df2:	90                   	nop
  401df3:	90                   	nop

00401df4 <__ZNSirsERi>:
  401df4:	ff 25 24 f3 40 00    	jmp    *0x40f324
  401dfa:	90                   	nop
  401dfb:	90                   	nop

00401dfc <__ZNSi6ignoreEii>:
  401dfc:	ff 25 20 f3 40 00    	jmp    *0x40f320
  401e02:	90                   	nop
  401e03:	90                   	nop

00401e04 <__ZNSaIcED1Ev>:
  401e04:	ff 25 1c f3 40 00    	jmp    *0x40f31c
  401e0a:	90                   	nop
  401e0b:	90                   	nop

00401e0c <__ZNSaIcEC1Ev>:
  401e0c:	ff 25 18 f3 40 00    	jmp    *0x40f318
  401e12:	90                   	nop
  401e13:	90                   	nop

00401e14 <__ZNKSt9basic_iosIcSt11char_traitsIcEEcvbEv>:
  401e14:	ff 25 14 f3 40 00    	jmp    *0x40f314
  401e1a:	90                   	nop
  401e1b:	90                   	nop

00401e1c <__ZNKSt7__cxx1112basic_stringIcSt11char_traitsIcESaIcEE8capacityEv>:
  401e1c:	ff 25 10 f3 40 00    	jmp    *0x40f310
  401e22:	90                   	nop
  401e23:	90                   	nop

00401e24 <__ZNKSt7__cxx1112basic_stringIcSt11char_traitsIcESaIcEE7compareERKS4_>:
  401e24:	ff 25 0c f3 40 00    	jmp    *0x40f30c
  401e2a:	90                   	nop
  401e2b:	90                   	nop

00401e2c <__ZNKSt7__cxx1112basic_stringIcSt11char_traitsIcESaIcEE7compareEPKc>:
  401e2c:	ff 25 08 f3 40 00    	jmp    *0x40f308
  401e32:	90                   	nop
  401e33:	90                   	nop

00401e34 <__ZNKSt7__cxx1112basic_stringIcSt11char_traitsIcESaIcEE4sizeEv>:
  401e34:	ff 25 04 f3 40 00    	jmp    *0x40f304
  401e3a:	90                   	nop
  401e3b:	90                   	nop
  401e3c:	66 90                	xchg   %ax,%ax
  401e3e:	66 90                	xchg   %ax,%ax

00401e40 <__setargv>:
  401e40:	55                   	push   %ebp
  401e41:	89 e5                	mov    %esp,%ebp
  401e43:	57                   	push   %edi
  401e44:	56                   	push   %esi
  401e45:	53                   	push   %ebx
  401e46:	83 ec 4c             	sub    $0x4c,%esp
  401e49:	f6 05 04 80 40 00 02 	testb  $0x2,0x408004
  401e50:	75 0e                	jne    401e60 <__setargv+0x20>
  401e52:	e8 39 f4 ff ff       	call   401290 <__mingw32_init_mainargs>
  401e57:	8d 65 f4             	lea    -0xc(%ebp),%esp
  401e5a:	5b                   	pop    %ebx
  401e5b:	5e                   	pop    %esi
  401e5c:	5f                   	pop    %edi
  401e5d:	5d                   	pop    %ebp
  401e5e:	c3                   	ret    
  401e5f:	90                   	nop
  401e60:	e8 13 27 00 00       	call   404578 <_GetCommandLineA@0>
  401e65:	89 65 bc             	mov    %esp,-0x44(%ebp)
  401e68:	89 04 24             	mov    %eax,(%esp)
  401e6b:	89 c7                	mov    %eax,%edi
  401e6d:	e8 16 26 00 00       	call   404488 <_strlen>
  401e72:	8d 44 00 11          	lea    0x11(%eax,%eax,1),%eax
  401e76:	c1 e8 04             	shr    $0x4,%eax
  401e79:	c1 e0 04             	shl    $0x4,%eax
  401e7c:	e8 77 0b 00 00       	call   4029f8 <___chkstk_ms>
  401e81:	31 d2                	xor    %edx,%edx
  401e83:	29 c4                	sub    %eax,%esp
  401e85:	a1 04 80 40 00       	mov    0x408004,%eax
  401e8a:	c7 45 e4 00 00 00 00 	movl   $0x0,-0x1c(%ebp)
  401e91:	8d 5c 24 10          	lea    0x10(%esp),%ebx
  401e95:	c7 45 d0 00 00 00 00 	movl   $0x0,-0x30(%ebp)
  401e9c:	25 00 44 00 00       	and    $0x4400,%eax
  401ea1:	89 5d c4             	mov    %ebx,-0x3c(%ebp)
  401ea4:	c7 45 c8 00 00 00 00 	movl   $0x0,-0x38(%ebp)
  401eab:	83 c8 10             	or     $0x10,%eax
  401eae:	89 45 c0             	mov    %eax,-0x40(%ebp)
  401eb1:	89 d8                	mov    %ebx,%eax
  401eb3:	83 c7 01             	add    $0x1,%edi
  401eb6:	0f be 77 ff          	movsbl -0x1(%edi),%esi
  401eba:	89 f3                	mov    %esi,%ebx
  401ebc:	89 75 d4             	mov    %esi,-0x2c(%ebp)
  401ebf:	85 f6                	test   %esi,%esi
  401ec1:	74 3d                	je     401f00 <__setargv+0xc0>
  401ec3:	8d 4b de             	lea    -0x22(%ebx),%ecx
  401ec6:	80 f9 5d             	cmp    $0x5d,%cl
  401ec9:	0f 87 83 01 00 00    	ja     402052 <__setargv+0x212>
  401ecf:	0f b6 c9             	movzbl %cl,%ecx
  401ed2:	ff 24 8d ac 90 40 00 	jmp    *0x4090ac(,%ecx,4)
  401ed9:	8d b4 26 00 00 00 00 	lea    0x0(%esi,%eiz,1),%esi
  401ee0:	83 7d d0 27          	cmpl   $0x27,-0x30(%ebp)
  401ee4:	0f 84 7a 02 00 00    	je     402164 <__setargv+0x324>
  401eea:	83 c7 01             	add    $0x1,%edi
  401eed:	0f be 77 ff          	movsbl -0x1(%edi),%esi
  401ef1:	83 c2 01             	add    $0x1,%edx
  401ef4:	89 f3                	mov    %esi,%ebx
  401ef6:	89 75 d4             	mov    %esi,-0x2c(%ebp)
  401ef9:	85 f6                	test   %esi,%esi
  401efb:	75 c6                	jne    401ec3 <__setargv+0x83>
  401efd:	8d 76 00             	lea    0x0(%esi),%esi
  401f00:	85 d2                	test   %edx,%edx
  401f02:	0f 84 89 02 00 00    	je     402191 <__setargv+0x351>
  401f08:	01 c2                	add    %eax,%edx
  401f0a:	8d b6 00 00 00 00    	lea    0x0(%esi),%esi
  401f10:	83 c0 01             	add    $0x1,%eax
  401f13:	c6 40 ff 5c          	movb   $0x5c,-0x1(%eax)
  401f17:	39 d0                	cmp    %edx,%eax
  401f19:	75 f5                	jne    401f10 <__setargv+0xd0>
  401f1b:	39 55 c4             	cmp    %edx,-0x3c(%ebp)
  401f1e:	0f 82 fc 01 00 00    	jb     402120 <__setargv+0x2e0>
  401f24:	8b 45 c8             	mov    -0x38(%ebp),%eax
  401f27:	85 c0                	test   %eax,%eax
  401f29:	0f 85 f1 01 00 00    	jne    402120 <__setargv+0x2e0>
  401f2f:	8b 45 dc             	mov    -0x24(%ebp),%eax
  401f32:	a3 04 e0 40 00       	mov    %eax,0x40e004
  401f37:	8b 45 e0             	mov    -0x20(%ebp),%eax
  401f3a:	a3 00 e0 40 00       	mov    %eax,0x40e000
  401f3f:	8b 65 bc             	mov    -0x44(%ebp),%esp
  401f42:	8d 65 f4             	lea    -0xc(%ebp),%esp
  401f45:	5b                   	pop    %ebx
  401f46:	5e                   	pop    %esi
  401f47:	5f                   	pop    %edi
  401f48:	5d                   	pop    %ebp
  401f49:	c3                   	ret    
  401f4a:	8d b6 00 00 00 00    	lea    0x0(%esi),%esi
  401f50:	8d 72 ff             	lea    -0x1(%edx),%esi
  401f53:	89 75 cc             	mov    %esi,-0x34(%ebp)
  401f56:	f6 05 04 80 40 00 20 	testb  $0x20,0x408004
  401f5d:	75 47                	jne    401fa6 <__setargv+0x166>
  401f5f:	be 01 00 00 00       	mov    $0x1,%esi
  401f64:	85 d2                	test   %edx,%edx
  401f66:	0f 84 33 02 00 00    	je     40219f <__setargv+0x35f>
  401f6c:	8b 55 cc             	mov    -0x34(%ebp),%edx
  401f6f:	8d 54 10 01          	lea    0x1(%eax,%edx,1),%edx
  401f73:	83 c0 01             	add    $0x1,%eax
  401f76:	c6 40 ff 5c          	movb   $0x5c,-0x1(%eax)
  401f7a:	39 d0                	cmp    %edx,%eax
  401f7c:	75 f5                	jne    401f73 <__setargv+0x133>
  401f7e:	89 f0                	mov    %esi,%eax
  401f80:	89 d1                	mov    %edx,%ecx
  401f82:	84 c0                	test   %al,%al
  401f84:	74 06                	je     401f8c <__setargv+0x14c>
  401f86:	c6 02 7f             	movb   $0x7f,(%edx)
  401f89:	8d 4a 01             	lea    0x1(%edx),%ecx
  401f8c:	8d 41 01             	lea    0x1(%ecx),%eax
  401f8f:	88 19                	mov    %bl,(%ecx)
  401f91:	31 d2                	xor    %edx,%edx
  401f93:	e9 1b ff ff ff       	jmp    401eb3 <__setargv+0x73>
  401f98:	8d b4 26 00 00 00 00 	lea    0x0(%esi,%eiz,1),%esi
  401f9f:	90                   	nop
  401fa0:	8d 4a ff             	lea    -0x1(%edx),%ecx
  401fa3:	89 4d cc             	mov    %ecx,-0x34(%ebp)
  401fa6:	8b 75 d0             	mov    -0x30(%ebp),%esi
  401fa9:	85 f6                	test   %esi,%esi
  401fab:	0f 95 c1             	setne  %cl
  401fae:	83 7d d4 7f          	cmpl   $0x7f,-0x2c(%ebp)
  401fb2:	89 ce                	mov    %ecx,%esi
  401fb4:	0f 94 45 d4          	sete   -0x2c(%ebp)
  401fb8:	0f b6 4d d4          	movzbl -0x2c(%ebp),%ecx
  401fbc:	09 ce                	or     %ecx,%esi
  401fbe:	85 d2                	test   %edx,%edx
  401fc0:	75 aa                	jne    401f6c <__setargv+0x12c>
  401fc2:	89 c2                	mov    %eax,%edx
  401fc4:	eb b8                	jmp    401f7e <__setargv+0x13e>
  401fc6:	8d b4 26 00 00 00 00 	lea    0x0(%esi,%eiz,1),%esi
  401fcd:	8d 76 00             	lea    0x0(%esi),%esi
  401fd0:	f6 05 04 80 40 00 10 	testb  $0x10,0x408004
  401fd7:	74 79                	je     402052 <__setargv+0x212>
  401fd9:	89 d1                	mov    %edx,%ecx
  401fdb:	d1 f9                	sar    %ecx
  401fdd:	0f 84 b5 01 00 00    	je     402198 <__setargv+0x358>
  401fe3:	01 c1                	add    %eax,%ecx
  401fe5:	83 c0 01             	add    $0x1,%eax
  401fe8:	c6 40 ff 5c          	movb   $0x5c,-0x1(%eax)
  401fec:	39 c8                	cmp    %ecx,%eax
  401fee:	75 f5                	jne    401fe5 <__setargv+0x1a5>
  401ff0:	83 7d d0 22          	cmpl   $0x22,-0x30(%ebp)
  401ff4:	74 09                	je     401fff <__setargv+0x1bf>
  401ff6:	83 e2 01             	and    $0x1,%edx
  401ff9:	0f 84 70 01 00 00    	je     40216f <__setargv+0x32f>
  401fff:	8d 41 01             	lea    0x1(%ecx),%eax
  402002:	c6 01 27             	movb   $0x27,(%ecx)
  402005:	31 d2                	xor    %edx,%edx
  402007:	c7 45 c8 01 00 00 00 	movl   $0x1,-0x38(%ebp)
  40200e:	e9 a0 fe ff ff       	jmp    401eb3 <__setargv+0x73>
  402013:	89 d1                	mov    %edx,%ecx
  402015:	d1 f9                	sar    %ecx
  402017:	0f 84 6d 01 00 00    	je     40218a <__setargv+0x34a>
  40201d:	01 c1                	add    %eax,%ecx
  40201f:	90                   	nop
  402020:	83 c0 01             	add    $0x1,%eax
  402023:	c6 40 ff 5c          	movb   $0x5c,-0x1(%eax)
  402027:	39 c1                	cmp    %eax,%ecx
  402029:	75 f5                	jne    402020 <__setargv+0x1e0>
  40202b:	83 7d d0 27          	cmpl   $0x27,-0x30(%ebp)
  40202f:	0f 84 1b 01 00 00    	je     402150 <__setargv+0x310>
  402035:	83 e2 01             	and    $0x1,%edx
  402038:	0f 85 12 01 00 00    	jne    402150 <__setargv+0x310>
  40203e:	83 75 d0 22          	xorl   $0x22,-0x30(%ebp)
  402042:	89 c8                	mov    %ecx,%eax
  402044:	31 d2                	xor    %edx,%edx
  402046:	c7 45 c8 01 00 00 00 	movl   $0x1,-0x38(%ebp)
  40204d:	e9 61 fe ff ff       	jmp    401eb3 <__setargv+0x73>
  402052:	8d 34 10             	lea    (%eax,%edx,1),%esi
  402055:	85 d2                	test   %edx,%edx
  402057:	0f 84 26 01 00 00    	je     402183 <__setargv+0x343>
  40205d:	8d 76 00             	lea    0x0(%esi),%esi
  402060:	83 c0 01             	add    $0x1,%eax
  402063:	c6 40 ff 5c          	movb   $0x5c,-0x1(%eax)
  402067:	39 f0                	cmp    %esi,%eax
  402069:	75 f5                	jne    402060 <__setargv+0x220>
  40206b:	8b 4d d0             	mov    -0x30(%ebp),%ecx
  40206e:	85 c9                	test   %ecx,%ecx
  402070:	75 5b                	jne    4020cd <__setargv+0x28d>
  402072:	a1 7c f2 40 00       	mov    0x40f27c,%eax
  402077:	83 38 01             	cmpl   $0x1,(%eax)
  40207a:	75 34                	jne    4020b0 <__setargv+0x270>
  40207c:	a1 a8 f2 40 00       	mov    0x40f2a8,%eax
  402081:	8b 55 d4             	mov    -0x2c(%ebp),%edx
  402084:	8b 00                	mov    (%eax),%eax
  402086:	f6 04 50 40          	testb  $0x40,(%eax,%edx,2)
  40208a:	74 3b                	je     4020c7 <__setargv+0x287>
  40208c:	39 75 c4             	cmp    %esi,-0x3c(%ebp)
  40208f:	72 4f                	jb     4020e0 <__setargv+0x2a0>
  402091:	8b 55 c8             	mov    -0x38(%ebp),%edx
  402094:	85 d2                	test   %edx,%edx
  402096:	75 48                	jne    4020e0 <__setargv+0x2a0>
  402098:	89 f0                	mov    %esi,%eax
  40209a:	31 d2                	xor    %edx,%edx
  40209c:	c7 45 c8 00 00 00 00 	movl   $0x0,-0x38(%ebp)
  4020a3:	e9 0b fe ff ff       	jmp    401eb3 <__setargv+0x73>
  4020a8:	8d b4 26 00 00 00 00 	lea    0x0(%esi,%eiz,1),%esi
  4020af:	90                   	nop
  4020b0:	c7 44 24 04 40 00 00 	movl   $0x40,0x4(%esp)
  4020b7:	00 
  4020b8:	8b 45 d4             	mov    -0x2c(%ebp),%eax
  4020bb:	89 04 24             	mov    %eax,(%esp)
  4020be:	e8 2d 24 00 00       	call   4044f0 <__isctype>
  4020c3:	85 c0                	test   %eax,%eax
  4020c5:	75 c5                	jne    40208c <__setargv+0x24c>
  4020c7:	83 7d d4 09          	cmpl   $0x9,-0x2c(%ebp)
  4020cb:	74 bf                	je     40208c <__setargv+0x24c>
  4020cd:	8d 46 01             	lea    0x1(%esi),%eax
  4020d0:	88 1e                	mov    %bl,(%esi)
  4020d2:	31 d2                	xor    %edx,%edx
  4020d4:	e9 da fd ff ff       	jmp    401eb3 <__setargv+0x73>
  4020d9:	8d b4 26 00 00 00 00 	lea    0x0(%esi,%eiz,1),%esi
  4020e0:	8d 45 d8             	lea    -0x28(%ebp),%eax
  4020e3:	c6 06 00             	movb   $0x0,(%esi)
  4020e6:	89 44 24 0c          	mov    %eax,0xc(%esp)
  4020ea:	c7 44 24 08 00 00 00 	movl   $0x0,0x8(%esp)
  4020f1:	00 
  4020f2:	8b 5d c0             	mov    -0x40(%ebp),%ebx
  4020f5:	89 5c 24 04          	mov    %ebx,0x4(%esp)
  4020f9:	8b 75 c4             	mov    -0x3c(%ebp),%esi
  4020fc:	83 cb 01             	or     $0x1,%ebx
  4020ff:	89 34 24             	mov    %esi,(%esp)
  402102:	e8 f9 18 00 00       	call   403a00 <___mingw_glob>
  402107:	89 5d c0             	mov    %ebx,-0x40(%ebp)
  40210a:	89 f0                	mov    %esi,%eax
  40210c:	31 d2                	xor    %edx,%edx
  40210e:	c7 45 c8 00 00 00 00 	movl   $0x0,-0x38(%ebp)
  402115:	e9 99 fd ff ff       	jmp    401eb3 <__setargv+0x73>
  40211a:	8d b6 00 00 00 00    	lea    0x0(%esi),%esi
  402120:	8d 45 d8             	lea    -0x28(%ebp),%eax
  402123:	c6 02 00             	movb   $0x0,(%edx)
  402126:	89 44 24 0c          	mov    %eax,0xc(%esp)
  40212a:	c7 44 24 08 00 00 00 	movl   $0x0,0x8(%esp)
  402131:	00 
  402132:	8b 45 c0             	mov    -0x40(%ebp),%eax
  402135:	89 44 24 04          	mov    %eax,0x4(%esp)
  402139:	8b 45 c4             	mov    -0x3c(%ebp),%eax
  40213c:	89 04 24             	mov    %eax,(%esp)
  40213f:	e8 bc 18 00 00       	call   403a00 <___mingw_glob>
  402144:	e9 e6 fd ff ff       	jmp    401f2f <__setargv+0xef>
  402149:	8d b4 26 00 00 00 00 	lea    0x0(%esi,%eiz,1),%esi
  402150:	8d 41 01             	lea    0x1(%ecx),%eax
  402153:	c6 01 22             	movb   $0x22,(%ecx)
  402156:	31 d2                	xor    %edx,%edx
  402158:	c7 45 c8 01 00 00 00 	movl   $0x1,-0x38(%ebp)
  40215f:	e9 4f fd ff ff       	jmp    401eb3 <__setargv+0x73>
  402164:	c6 00 5c             	movb   $0x5c,(%eax)
  402167:	83 c0 01             	add    $0x1,%eax
  40216a:	e9 44 fd ff ff       	jmp    401eb3 <__setargv+0x73>
  40216f:	83 75 d0 27          	xorl   $0x27,-0x30(%ebp)
  402173:	89 c8                	mov    %ecx,%eax
  402175:	31 d2                	xor    %edx,%edx
  402177:	c7 45 c8 01 00 00 00 	movl   $0x1,-0x38(%ebp)
  40217e:	e9 30 fd ff ff       	jmp    401eb3 <__setargv+0x73>
  402183:	89 c6                	mov    %eax,%esi
  402185:	e9 e1 fe ff ff       	jmp    40206b <__setargv+0x22b>
  40218a:	89 c1                	mov    %eax,%ecx
  40218c:	e9 9a fe ff ff       	jmp    40202b <__setargv+0x1eb>
  402191:	89 c2                	mov    %eax,%edx
  402193:	e9 83 fd ff ff       	jmp    401f1b <__setargv+0xdb>
  402198:	89 c1                	mov    %eax,%ecx
  40219a:	e9 51 fe ff ff       	jmp    401ff0 <__setargv+0x1b0>
  40219f:	89 c2                	mov    %eax,%edx
  4021a1:	e9 e0 fd ff ff       	jmp    401f86 <__setargv+0x146>
  4021a6:	90                   	nop
  4021a7:	90                   	nop
  4021a8:	90                   	nop
  4021a9:	90                   	nop
  4021aa:	90                   	nop
  4021ab:	90                   	nop
  4021ac:	90                   	nop
  4021ad:	90                   	nop
  4021ae:	90                   	nop
  4021af:	90                   	nop

004021b0 <___cpu_features_init>:
  4021b0:	9c                   	pushf  
  4021b1:	9c                   	pushf  
  4021b2:	58                   	pop    %eax
  4021b3:	89 c2                	mov    %eax,%edx
  4021b5:	35 00 00 20 00       	xor    $0x200000,%eax
  4021ba:	50                   	push   %eax
  4021bb:	9d                   	popf   
  4021bc:	9c                   	pushf  
  4021bd:	58                   	pop    %eax
  4021be:	9d                   	popf   
  4021bf:	31 d0                	xor    %edx,%eax
  4021c1:	a9 00 00 20 00       	test   $0x200000,%eax
  4021c6:	0f 84 e9 00 00 00    	je     4022b5 <___cpu_features_init+0x105>
  4021cc:	53                   	push   %ebx
  4021cd:	31 c0                	xor    %eax,%eax
  4021cf:	0f a2                	cpuid  
  4021d1:	85 c0                	test   %eax,%eax
  4021d3:	0f 84 db 00 00 00    	je     4022b4 <___cpu_features_init+0x104>
  4021d9:	b8 01 00 00 00       	mov    $0x1,%eax
  4021de:	0f a2                	cpuid  
  4021e0:	31 c0                	xor    %eax,%eax
  4021e2:	f6 c6 01             	test   $0x1,%dh
  4021e5:	74 03                	je     4021ea <___cpu_features_init+0x3a>
  4021e7:	83 c8 01             	or     $0x1,%eax
  4021ea:	f6 c5 20             	test   $0x20,%ch
  4021ed:	74 05                	je     4021f4 <___cpu_features_init+0x44>
  4021ef:	0d 80 00 00 00       	or     $0x80,%eax
  4021f4:	f6 c6 80             	test   $0x80,%dh
  4021f7:	74 03                	je     4021fc <___cpu_features_init+0x4c>
  4021f9:	83 c8 02             	or     $0x2,%eax
  4021fc:	f7 c2 00 00 80 00    	test   $0x800000,%edx
  402202:	74 03                	je     402207 <___cpu_features_init+0x57>
  402204:	83 c8 04             	or     $0x4,%eax
  402207:	f7 c2 00 00 00 01    	test   $0x1000000,%edx
  40220d:	74 6d                	je     40227c <___cpu_features_init+0xcc>
  40220f:	83 c8 08             	or     $0x8,%eax
  402212:	55                   	push   %ebp
  402213:	89 e5                	mov    %esp,%ebp
  402215:	81 ec 00 02 00 00    	sub    $0x200,%esp
  40221b:	83 e4 f0             	and    $0xfffffff0,%esp
  40221e:	0f ae 04 24          	fxsave (%esp)
  402222:	8b 9c 24 c8 00 00 00 	mov    0xc8(%esp),%ebx
  402229:	81 b4 24 c8 00 00 00 	xorl   $0x13c0de,0xc8(%esp)
  402230:	de c0 13 00 
  402234:	0f ae 0c 24          	fxrstor (%esp)
  402238:	89 9c 24 c8 00 00 00 	mov    %ebx,0xc8(%esp)
  40223f:	0f ae 04 24          	fxsave (%esp)
  402243:	87 9c 24 c8 00 00 00 	xchg   %ebx,0xc8(%esp)
  40224a:	0f ae 0c 24          	fxrstor (%esp)
  40224e:	33 9c 24 c8 00 00 00 	xor    0xc8(%esp),%ebx
  402255:	c9                   	leave  
  402256:	81 fb de c0 13 00    	cmp    $0x13c0de,%ebx
  40225c:	75 1e                	jne    40227c <___cpu_features_init+0xcc>
  40225e:	f7 c2 00 00 00 02    	test   $0x2000000,%edx
  402264:	74 03                	je     402269 <___cpu_features_init+0xb9>
  402266:	83 c8 10             	or     $0x10,%eax
  402269:	f7 c2 00 00 00 04    	test   $0x4000000,%edx
  40226f:	74 03                	je     402274 <___cpu_features_init+0xc4>
  402271:	83 c8 20             	or     $0x20,%eax
  402274:	f6 c1 01             	test   $0x1,%cl
  402277:	74 03                	je     40227c <___cpu_features_init+0xcc>
  402279:	83 c8 40             	or     $0x40,%eax
  40227c:	a3 28 e0 40 00       	mov    %eax,0x40e028
  402281:	b8 00 00 00 80       	mov    $0x80000000,%eax
  402286:	0f a2                	cpuid  
  402288:	3d 00 00 00 80       	cmp    $0x80000000,%eax
  40228d:	76 25                	jbe    4022b4 <___cpu_features_init+0x104>
  40228f:	b8 01 00 00 80       	mov    $0x80000001,%eax
  402294:	0f a2                	cpuid  
  402296:	31 c0                	xor    %eax,%eax
  402298:	85 d2                	test   %edx,%edx
  40229a:	79 05                	jns    4022a1 <___cpu_features_init+0xf1>
  40229c:	b8 00 01 00 00       	mov    $0x100,%eax
  4022a1:	f7 c2 00 00 00 40    	test   $0x40000000,%edx
  4022a7:	74 05                	je     4022ae <___cpu_features_init+0xfe>
  4022a9:	0d 00 02 00 00       	or     $0x200,%eax
  4022ae:	09 05 28 e0 40 00    	or     %eax,0x40e028
  4022b4:	5b                   	pop    %ebx
  4022b5:	f3 c3                	repz ret 
  4022b7:	90                   	nop
  4022b8:	90                   	nop
  4022b9:	90                   	nop
  4022ba:	90                   	nop
  4022bb:	90                   	nop
  4022bc:	90                   	nop
  4022bd:	90                   	nop
  4022be:	90                   	nop
  4022bf:	90                   	nop

004022c0 <___do_global_dtors>:
  4022c0:	a1 10 80 40 00       	mov    0x408010,%eax
  4022c5:	8b 00                	mov    (%eax),%eax
  4022c7:	85 c0                	test   %eax,%eax
  4022c9:	74 25                	je     4022f0 <___do_global_dtors+0x30>
  4022cb:	83 ec 0c             	sub    $0xc,%esp
  4022ce:	66 90                	xchg   %ax,%ax
  4022d0:	ff d0                	call   *%eax
  4022d2:	a1 10 80 40 00       	mov    0x408010,%eax
  4022d7:	8d 50 04             	lea    0x4(%eax),%edx
  4022da:	8b 40 04             	mov    0x4(%eax),%eax
  4022dd:	89 15 10 80 40 00    	mov    %edx,0x408010
  4022e3:	85 c0                	test   %eax,%eax
  4022e5:	75 e9                	jne    4022d0 <___do_global_dtors+0x10>
  4022e7:	83 c4 0c             	add    $0xc,%esp
  4022ea:	c3                   	ret    
  4022eb:	8d 74 26 00          	lea    0x0(%esi,%eiz,1),%esi
  4022ef:	90                   	nop
  4022f0:	c3                   	ret    
  4022f1:	8d b4 26 00 00 00 00 	lea    0x0(%esi,%eiz,1),%esi
  4022f8:	8d b4 26 00 00 00 00 	lea    0x0(%esi,%eiz,1),%esi
  4022ff:	90                   	nop

00402300 <___do_global_ctors>:
  402300:	53                   	push   %ebx
  402301:	83 ec 18             	sub    $0x18,%esp
  402304:	8b 1d b0 6e 40 00    	mov    0x406eb0,%ebx
  40230a:	83 fb ff             	cmp    $0xffffffff,%ebx
  40230d:	74 21                	je     402330 <___do_global_ctors+0x30>
  40230f:	85 db                	test   %ebx,%ebx
  402311:	74 0c                	je     40231f <___do_global_ctors+0x1f>
  402313:	ff 14 9d b0 6e 40 00 	call   *0x406eb0(,%ebx,4)
  40231a:	83 eb 01             	sub    $0x1,%ebx
  40231d:	75 f4                	jne    402313 <___do_global_ctors+0x13>
  40231f:	c7 04 24 c0 22 40 00 	movl   $0x4022c0,(%esp)
  402326:	e8 e5 ef ff ff       	call   401310 <_atexit>
  40232b:	83 c4 18             	add    $0x18,%esp
  40232e:	5b                   	pop    %ebx
  40232f:	c3                   	ret    
  402330:	31 db                	xor    %ebx,%ebx
  402332:	eb 02                	jmp    402336 <___do_global_ctors+0x36>
  402334:	89 c3                	mov    %eax,%ebx
  402336:	8d 43 01             	lea    0x1(%ebx),%eax
  402339:	8b 14 85 b0 6e 40 00 	mov    0x406eb0(,%eax,4),%edx
  402340:	85 d2                	test   %edx,%edx
  402342:	75 f0                	jne    402334 <___do_global_ctors+0x34>
  402344:	eb c9                	jmp    40230f <___do_global_ctors+0xf>
  402346:	8d b4 26 00 00 00 00 	lea    0x0(%esi,%eiz,1),%esi
  40234d:	8d 76 00             	lea    0x0(%esi),%esi

00402350 <___main>:
  402350:	a1 2c e0 40 00       	mov    0x40e02c,%eax
  402355:	85 c0                	test   %eax,%eax
  402357:	74 07                	je     402360 <___main+0x10>
  402359:	c3                   	ret    
  40235a:	8d b6 00 00 00 00    	lea    0x0(%esi),%esi
  402360:	c7 05 2c e0 40 00 01 	movl   $0x1,0x40e02c
  402367:	00 00 00 
  40236a:	eb 94                	jmp    402300 <___do_global_ctors>
  40236c:	90                   	nop
  40236d:	90                   	nop
  40236e:	90                   	nop
  40236f:	90                   	nop

00402370 <.text>:
  402370:	83 ec 1c             	sub    $0x1c,%esp
  402373:	8b 44 24 24          	mov    0x24(%esp),%eax
  402377:	83 f8 03             	cmp    $0x3,%eax
  40237a:	74 14                	je     402390 <.text+0x20>
  40237c:	85 c0                	test   %eax,%eax
  40237e:	74 10                	je     402390 <.text+0x20>
  402380:	b8 01 00 00 00       	mov    $0x1,%eax
  402385:	83 c4 1c             	add    $0x1c,%esp
  402388:	c2 0c 00             	ret    $0xc
  40238b:	8d 74 26 00          	lea    0x0(%esi,%eiz,1),%esi
  40238f:	90                   	nop
  402390:	8b 54 24 28          	mov    0x28(%esp),%edx
  402394:	89 44 24 04          	mov    %eax,0x4(%esp)
  402398:	8b 44 24 20          	mov    0x20(%esp),%eax
  40239c:	89 54 24 08          	mov    %edx,0x8(%esp)
  4023a0:	89 04 24             	mov    %eax,(%esp)
  4023a3:	e8 58 02 00 00       	call   402600 <___mingw_TLScallback>
  4023a8:	b8 01 00 00 00       	mov    $0x1,%eax
  4023ad:	83 c4 1c             	add    $0x1c,%esp
  4023b0:	c2 0c 00             	ret    $0xc
  4023b3:	8d b4 26 00 00 00 00 	lea    0x0(%esi,%eiz,1),%esi
  4023ba:	8d b6 00 00 00 00    	lea    0x0(%esi),%esi

004023c0 <___dyn_tls_init@12>:
  4023c0:	56                   	push   %esi
  4023c1:	53                   	push   %ebx
  4023c2:	83 ec 14             	sub    $0x14,%esp
  4023c5:	83 3d 68 e0 40 00 02 	cmpl   $0x2,0x40e068
  4023cc:	8b 44 24 24          	mov    0x24(%esp),%eax
  4023d0:	74 0a                	je     4023dc <___dyn_tls_init@12+0x1c>
  4023d2:	c7 05 68 e0 40 00 02 	movl   $0x2,0x40e068
  4023d9:	00 00 00 
  4023dc:	83 f8 02             	cmp    $0x2,%eax
  4023df:	74 12                	je     4023f3 <___dyn_tls_init@12+0x33>
  4023e1:	83 f8 01             	cmp    $0x1,%eax
  4023e4:	74 4b                	je     402431 <___dyn_tls_init@12+0x71>
  4023e6:	83 c4 14             	add    $0x14,%esp
  4023e9:	b8 01 00 00 00       	mov    $0x1,%eax
  4023ee:	5b                   	pop    %ebx
  4023ef:	5e                   	pop    %esi
  4023f0:	c2 0c 00             	ret    $0xc
  4023f3:	b8 14 10 41 00       	mov    $0x411014,%eax
  4023f8:	2d 14 10 41 00       	sub    $0x411014,%eax
  4023fd:	89 c6                	mov    %eax,%esi
  4023ff:	c1 fe 02             	sar    $0x2,%esi
  402402:	85 c0                	test   %eax,%eax
  402404:	7e e0                	jle    4023e6 <___dyn_tls_init@12+0x26>
  402406:	31 db                	xor    %ebx,%ebx
  402408:	8d b4 26 00 00 00 00 	lea    0x0(%esi,%eiz,1),%esi
  40240f:	90                   	nop
  402410:	8b 04 9d 14 10 41 00 	mov    0x411014(,%ebx,4),%eax
  402417:	85 c0                	test   %eax,%eax
  402419:	74 02                	je     40241d <___dyn_tls_init@12+0x5d>
  40241b:	ff d0                	call   *%eax
  40241d:	83 c3 01             	add    $0x1,%ebx
  402420:	39 de                	cmp    %ebx,%esi
  402422:	7f ec                	jg     402410 <___dyn_tls_init@12+0x50>
  402424:	83 c4 14             	add    $0x14,%esp
  402427:	b8 01 00 00 00       	mov    $0x1,%eax
  40242c:	5b                   	pop    %ebx
  40242d:	5e                   	pop    %esi
  40242e:	c2 0c 00             	ret    $0xc
  402431:	8b 44 24 28          	mov    0x28(%esp),%eax
  402435:	c7 44 24 04 01 00 00 	movl   $0x1,0x4(%esp)
  40243c:	00 
  40243d:	89 44 24 08          	mov    %eax,0x8(%esp)
  402441:	8b 44 24 20          	mov    0x20(%esp),%eax
  402445:	89 04 24             	mov    %eax,(%esp)
  402448:	e8 b3 01 00 00       	call   402600 <___mingw_TLScallback>
  40244d:	83 c4 14             	add    $0x14,%esp
  402450:	b8 01 00 00 00       	mov    $0x1,%eax
  402455:	5b                   	pop    %ebx
  402456:	5e                   	pop    %esi
  402457:	c2 0c 00             	ret    $0xc
  40245a:	8d b6 00 00 00 00    	lea    0x0(%esi),%esi

00402460 <___tlregdtor>:
  402460:	31 c0                	xor    %eax,%eax
  402462:	c3                   	ret    
  402463:	90                   	nop
  402464:	90                   	nop
  402465:	90                   	nop
  402466:	90                   	nop
  402467:	90                   	nop
  402468:	90                   	nop
  402469:	90                   	nop
  40246a:	90                   	nop
  40246b:	90                   	nop
  40246c:	90                   	nop
  40246d:	90                   	nop
  40246e:	90                   	nop
  40246f:	90                   	nop

00402470 <.text>:
  402470:	56                   	push   %esi
  402471:	53                   	push   %ebx
  402472:	83 ec 14             	sub    $0x14,%esp
  402475:	c7 04 24 48 e0 40 00 	movl   $0x40e048,(%esp)
  40247c:	e8 27 21 00 00       	call   4045a8 <_EnterCriticalSection@4>
  402481:	8b 1d 40 e0 40 00    	mov    0x40e040,%ebx
  402487:	83 ec 04             	sub    $0x4,%esp
  40248a:	85 db                	test   %ebx,%ebx
  40248c:	74 2d                	je     4024bb <.text+0x4b>
  40248e:	66 90                	xchg   %ax,%ax
  402490:	8b 03                	mov    (%ebx),%eax
  402492:	89 04 24             	mov    %eax,(%esp)
  402495:	e8 9e 20 00 00       	call   404538 <_TlsGetValue@4>
  40249a:	83 ec 04             	sub    $0x4,%esp
  40249d:	89 c6                	mov    %eax,%esi
  40249f:	e8 cc 20 00 00       	call   404570 <_GetLastError@0>
  4024a4:	85 c0                	test   %eax,%eax
  4024a6:	75 0c                	jne    4024b4 <.text+0x44>
  4024a8:	85 f6                	test   %esi,%esi
  4024aa:	74 08                	je     4024b4 <.text+0x44>
  4024ac:	8b 43 04             	mov    0x4(%ebx),%eax
  4024af:	89 34 24             	mov    %esi,(%esp)
  4024b2:	ff d0                	call   *%eax
  4024b4:	8b 5b 08             	mov    0x8(%ebx),%ebx
  4024b7:	85 db                	test   %ebx,%ebx
  4024b9:	75 d5                	jne    402490 <.text+0x20>
  4024bb:	c7 04 24 48 e0 40 00 	movl   $0x40e048,(%esp)
  4024c2:	e8 89 20 00 00       	call   404550 <_LeaveCriticalSection@4>
  4024c7:	83 ec 04             	sub    $0x4,%esp
  4024ca:	83 c4 14             	add    $0x14,%esp
  4024cd:	5b                   	pop    %ebx
  4024ce:	5e                   	pop    %esi
  4024cf:	c3                   	ret    

004024d0 <____w64_mingwthr_add_key_dtor>:
  4024d0:	56                   	push   %esi
  4024d1:	31 f6                	xor    %esi,%esi
  4024d3:	53                   	push   %ebx
  4024d4:	83 ec 14             	sub    $0x14,%esp
  4024d7:	a1 44 e0 40 00       	mov    0x40e044,%eax
  4024dc:	85 c0                	test   %eax,%eax
  4024de:	75 10                	jne    4024f0 <____w64_mingwthr_add_key_dtor+0x20>
  4024e0:	83 c4 14             	add    $0x14,%esp
  4024e3:	89 f0                	mov    %esi,%eax
  4024e5:	5b                   	pop    %ebx
  4024e6:	5e                   	pop    %esi
  4024e7:	c3                   	ret    
  4024e8:	8d b4 26 00 00 00 00 	lea    0x0(%esi,%eiz,1),%esi
  4024ef:	90                   	nop
  4024f0:	c7 44 24 04 0c 00 00 	movl   $0xc,0x4(%esp)
  4024f7:	00 
  4024f8:	c7 04 24 01 00 00 00 	movl   $0x1,(%esp)
  4024ff:	e8 d4 1f 00 00       	call   4044d8 <_calloc>
  402504:	89 c3                	mov    %eax,%ebx
  402506:	85 c0                	test   %eax,%eax
  402508:	74 41                	je     40254b <____w64_mingwthr_add_key_dtor+0x7b>
  40250a:	8b 44 24 20          	mov    0x20(%esp),%eax
  40250e:	c7 04 24 48 e0 40 00 	movl   $0x40e048,(%esp)
  402515:	89 03                	mov    %eax,(%ebx)
  402517:	8b 44 24 24          	mov    0x24(%esp),%eax
  40251b:	89 43 04             	mov    %eax,0x4(%ebx)
  40251e:	e8 85 20 00 00       	call   4045a8 <_EnterCriticalSection@4>
  402523:	a1 40 e0 40 00       	mov    0x40e040,%eax
  402528:	89 1d 40 e0 40 00    	mov    %ebx,0x40e040
  40252e:	83 ec 04             	sub    $0x4,%esp
  402531:	c7 04 24 48 e0 40 00 	movl   $0x40e048,(%esp)
  402538:	89 43 08             	mov    %eax,0x8(%ebx)
  40253b:	e8 10 20 00 00       	call   404550 <_LeaveCriticalSection@4>
  402540:	89 f0                	mov    %esi,%eax
  402542:	83 ec 04             	sub    $0x4,%esp
  402545:	83 c4 14             	add    $0x14,%esp
  402548:	5b                   	pop    %ebx
  402549:	5e                   	pop    %esi
  40254a:	c3                   	ret    
  40254b:	be ff ff ff ff       	mov    $0xffffffff,%esi
  402550:	eb 8e                	jmp    4024e0 <____w64_mingwthr_add_key_dtor+0x10>
  402552:	8d b4 26 00 00 00 00 	lea    0x0(%esi,%eiz,1),%esi
  402559:	8d b4 26 00 00 00 00 	lea    0x0(%esi,%eiz,1),%esi

00402560 <____w64_mingwthr_remove_key_dtor>:
  402560:	53                   	push   %ebx
  402561:	83 ec 18             	sub    $0x18,%esp
  402564:	a1 44 e0 40 00       	mov    0x40e044,%eax
  402569:	8b 5c 24 20          	mov    0x20(%esp),%ebx
  40256d:	85 c0                	test   %eax,%eax
  40256f:	75 0f                	jne    402580 <____w64_mingwthr_remove_key_dtor+0x20>
  402571:	83 c4 18             	add    $0x18,%esp
  402574:	31 c0                	xor    %eax,%eax
  402576:	5b                   	pop    %ebx
  402577:	c3                   	ret    
  402578:	8d b4 26 00 00 00 00 	lea    0x0(%esi,%eiz,1),%esi
  40257f:	90                   	nop
  402580:	c7 04 24 48 e0 40 00 	movl   $0x40e048,(%esp)
  402587:	e8 1c 20 00 00       	call   4045a8 <_EnterCriticalSection@4>
  40258c:	8b 15 40 e0 40 00    	mov    0x40e040,%edx
  402592:	83 ec 04             	sub    $0x4,%esp
  402595:	85 d2                	test   %edx,%edx
  402597:	74 17                	je     4025b0 <____w64_mingwthr_remove_key_dtor+0x50>
  402599:	8b 02                	mov    (%edx),%eax
  40259b:	39 c3                	cmp    %eax,%ebx
  40259d:	75 0a                	jne    4025a9 <____w64_mingwthr_remove_key_dtor+0x49>
  40259f:	eb 4e                	jmp    4025ef <____w64_mingwthr_remove_key_dtor+0x8f>
  4025a1:	8b 08                	mov    (%eax),%ecx
  4025a3:	39 d9                	cmp    %ebx,%ecx
  4025a5:	74 29                	je     4025d0 <____w64_mingwthr_remove_key_dtor+0x70>
  4025a7:	89 c2                	mov    %eax,%edx
  4025a9:	8b 42 08             	mov    0x8(%edx),%eax
  4025ac:	85 c0                	test   %eax,%eax
  4025ae:	75 f1                	jne    4025a1 <____w64_mingwthr_remove_key_dtor+0x41>
  4025b0:	c7 04 24 48 e0 40 00 	movl   $0x40e048,(%esp)
  4025b7:	e8 94 1f 00 00       	call   404550 <_LeaveCriticalSection@4>
  4025bc:	83 ec 04             	sub    $0x4,%esp
  4025bf:	83 c4 18             	add    $0x18,%esp
  4025c2:	31 c0                	xor    %eax,%eax
  4025c4:	5b                   	pop    %ebx
  4025c5:	c3                   	ret    
  4025c6:	8d b4 26 00 00 00 00 	lea    0x0(%esi,%eiz,1),%esi
  4025cd:	8d 76 00             	lea    0x0(%esi),%esi
  4025d0:	8b 48 08             	mov    0x8(%eax),%ecx
  4025d3:	89 4a 08             	mov    %ecx,0x8(%edx)
  4025d6:	89 04 24             	mov    %eax,(%esp)
  4025d9:	e8 f2 1e 00 00       	call   4044d0 <_free>
  4025de:	c7 04 24 48 e0 40 00 	movl   $0x40e048,(%esp)
  4025e5:	e8 66 1f 00 00       	call   404550 <_LeaveCriticalSection@4>
  4025ea:	83 ec 04             	sub    $0x4,%esp
  4025ed:	eb d0                	jmp    4025bf <____w64_mingwthr_remove_key_dtor+0x5f>
  4025ef:	8b 42 08             	mov    0x8(%edx),%eax
  4025f2:	a3 40 e0 40 00       	mov    %eax,0x40e040
  4025f7:	89 d0                	mov    %edx,%eax
  4025f9:	eb db                	jmp    4025d6 <____w64_mingwthr_remove_key_dtor+0x76>
  4025fb:	8d 74 26 00          	lea    0x0(%esi,%eiz,1),%esi
  4025ff:	90                   	nop

00402600 <___mingw_TLScallback>:
  402600:	83 ec 1c             	sub    $0x1c,%esp
  402603:	8b 44 24 24          	mov    0x24(%esp),%eax
  402607:	83 f8 01             	cmp    $0x1,%eax
  40260a:	74 54                	je     402660 <___mingw_TLScallback+0x60>
  40260c:	85 c0                	test   %eax,%eax
  40260e:	74 20                	je     402630 <___mingw_TLScallback+0x30>
  402610:	83 f8 03             	cmp    $0x3,%eax
  402613:	75 09                	jne    40261e <___mingw_TLScallback+0x1e>
  402615:	a1 44 e0 40 00       	mov    0x40e044,%eax
  40261a:	85 c0                	test   %eax,%eax
  40261c:	75 73                	jne    402691 <___mingw_TLScallback+0x91>
  40261e:	b8 01 00 00 00       	mov    $0x1,%eax
  402623:	83 c4 1c             	add    $0x1c,%esp
  402626:	c3                   	ret    
  402627:	8d b4 26 00 00 00 00 	lea    0x0(%esi,%eiz,1),%esi
  40262e:	66 90                	xchg   %ax,%ax
  402630:	a1 44 e0 40 00       	mov    0x40e044,%eax
  402635:	85 c0                	test   %eax,%eax
  402637:	75 47                	jne    402680 <___mingw_TLScallback+0x80>
  402639:	a1 44 e0 40 00       	mov    0x40e044,%eax
  40263e:	83 f8 01             	cmp    $0x1,%eax
  402641:	75 db                	jne    40261e <___mingw_TLScallback+0x1e>
  402643:	c7 04 24 48 e0 40 00 	movl   $0x40e048,(%esp)
  40264a:	c7 05 44 e0 40 00 00 	movl   $0x0,0x40e044
  402651:	00 00 00 
  402654:	e8 57 1f 00 00       	call   4045b0 <_DeleteCriticalSection@4>
  402659:	83 ec 04             	sub    $0x4,%esp
  40265c:	eb c0                	jmp    40261e <___mingw_TLScallback+0x1e>
  40265e:	66 90                	xchg   %ax,%ax
  402660:	a1 44 e0 40 00       	mov    0x40e044,%eax
  402665:	85 c0                	test   %eax,%eax
  402667:	74 37                	je     4026a0 <___mingw_TLScallback+0xa0>
  402669:	c7 05 44 e0 40 00 01 	movl   $0x1,0x40e044
  402670:	00 00 00 
  402673:	b8 01 00 00 00       	mov    $0x1,%eax
  402678:	83 c4 1c             	add    $0x1c,%esp
  40267b:	c3                   	ret    
  40267c:	8d 74 26 00          	lea    0x0(%esi,%eiz,1),%esi
  402680:	e8 eb fd ff ff       	call   402470 <.text>
  402685:	a1 44 e0 40 00       	mov    0x40e044,%eax
  40268a:	83 f8 01             	cmp    $0x1,%eax
  40268d:	75 8f                	jne    40261e <___mingw_TLScallback+0x1e>
  40268f:	eb b2                	jmp    402643 <___mingw_TLScallback+0x43>
  402691:	e8 da fd ff ff       	call   402470 <.text>
  402696:	b8 01 00 00 00       	mov    $0x1,%eax
  40269b:	83 c4 1c             	add    $0x1c,%esp
  40269e:	c3                   	ret    
  40269f:	90                   	nop
  4026a0:	c7 04 24 48 e0 40 00 	movl   $0x40e048,(%esp)
  4026a7:	e8 ac 1e 00 00       	call   404558 <_InitializeCriticalSection@4>
  4026ac:	83 ec 04             	sub    $0x4,%esp
  4026af:	eb b8                	jmp    402669 <___mingw_TLScallback+0x69>
  4026b1:	90                   	nop
  4026b2:	90                   	nop
  4026b3:	90                   	nop
  4026b4:	90                   	nop
  4026b5:	90                   	nop
  4026b6:	90                   	nop
  4026b7:	90                   	nop
  4026b8:	90                   	nop
  4026b9:	90                   	nop
  4026ba:	90                   	nop
  4026bb:	90                   	nop
  4026bc:	90                   	nop
  4026bd:	90                   	nop
  4026be:	90                   	nop
  4026bf:	90                   	nop

004026c0 <.text>:
  4026c0:	56                   	push   %esi
  4026c1:	53                   	push   %ebx
  4026c2:	83 ec 14             	sub    $0x14,%esp
  4026c5:	a1 9c f2 40 00       	mov    0x40f29c,%eax
  4026ca:	c7 44 24 08 17 00 00 	movl   $0x17,0x8(%esp)
  4026d1:	00 
  4026d2:	8d 74 24 24          	lea    0x24(%esp),%esi
  4026d6:	8d 58 40             	lea    0x40(%eax),%ebx
  4026d9:	c7 44 24 04 01 00 00 	movl   $0x1,0x4(%esp)
  4026e0:	00 
  4026e1:	89 5c 24 0c          	mov    %ebx,0xc(%esp)
  4026e5:	c7 04 24 28 92 40 00 	movl   $0x409228,(%esp)
  4026ec:	e8 d7 1d 00 00       	call   4044c8 <_fwrite>
  4026f1:	8b 44 24 20          	mov    0x20(%esp),%eax
  4026f5:	89 74 24 08          	mov    %esi,0x8(%esp)
  4026f9:	89 1c 24             	mov    %ebx,(%esp)
  4026fc:	89 44 24 04          	mov    %eax,0x4(%esp)
  402700:	e8 73 1d 00 00       	call   404478 <_vfprintf>
  402705:	e8 d6 1d 00 00       	call   4044e0 <_abort>
  40270a:	8d b6 00 00 00 00    	lea    0x0(%esi),%esi
  402710:	55                   	push   %ebp
  402711:	57                   	push   %edi
  402712:	89 d7                	mov    %edx,%edi
  402714:	56                   	push   %esi
  402715:	89 ce                	mov    %ecx,%esi
  402717:	53                   	push   %ebx
  402718:	89 c3                	mov    %eax,%ebx
  40271a:	83 ec 3c             	sub    $0x3c,%esp
  40271d:	8d 44 24 14          	lea    0x14(%esp),%eax
  402721:	c7 44 24 08 1c 00 00 	movl   $0x1c,0x8(%esp)
  402728:	00 
  402729:	89 44 24 04          	mov    %eax,0x4(%esp)
  40272d:	89 1c 24             	mov    %ebx,(%esp)
  402730:	e8 f3 1d 00 00       	call   404528 <_VirtualQuery@12>
  402735:	83 ec 0c             	sub    $0xc,%esp
  402738:	85 c0                	test   %eax,%eax
  40273a:	0f 84 a4 00 00 00    	je     4027e4 <.text+0x124>
  402740:	8b 44 24 28          	mov    0x28(%esp),%eax
  402744:	83 f8 40             	cmp    $0x40,%eax
  402747:	74 05                	je     40274e <.text+0x8e>
  402749:	83 f8 04             	cmp    $0x4,%eax
  40274c:	75 22                	jne    402770 <.text+0xb0>
  40274e:	85 f6                	test   %esi,%esi
  402750:	74 10                	je     402762 <.text+0xa2>
  402752:	31 c0                	xor    %eax,%eax
  402754:	0f b6 0c 07          	movzbl (%edi,%eax,1),%ecx
  402758:	88 0c 03             	mov    %cl,(%ebx,%eax,1)
  40275b:	83 c0 01             	add    $0x1,%eax
  40275e:	39 f0                	cmp    %esi,%eax
  402760:	72 f2                	jb     402754 <.text+0x94>
  402762:	83 c4 3c             	add    $0x3c,%esp
  402765:	5b                   	pop    %ebx
  402766:	5e                   	pop    %esi
  402767:	5f                   	pop    %edi
  402768:	5d                   	pop    %ebp
  402769:	c3                   	ret    
  40276a:	8d b6 00 00 00 00    	lea    0x0(%esi),%esi
  402770:	8b 44 24 20          	mov    0x20(%esp),%eax
  402774:	8d 6c 24 10          	lea    0x10(%esp),%ebp
  402778:	c7 44 24 08 40 00 00 	movl   $0x40,0x8(%esp)
  40277f:	00 
  402780:	89 6c 24 0c          	mov    %ebp,0xc(%esp)
  402784:	89 44 24 04          	mov    %eax,0x4(%esp)
  402788:	8b 44 24 14          	mov    0x14(%esp),%eax
  40278c:	89 04 24             	mov    %eax,(%esp)
  40278f:	e8 9c 1d 00 00       	call   404530 <_VirtualProtect@16>
  402794:	83 ec 10             	sub    $0x10,%esp
  402797:	8b 4c 24 28          	mov    0x28(%esp),%ecx
  40279b:	85 f6                	test   %esi,%esi
  40279d:	74 10                	je     4027af <.text+0xef>
  40279f:	31 d2                	xor    %edx,%edx
  4027a1:	0f b6 04 17          	movzbl (%edi,%edx,1),%eax
  4027a5:	88 04 13             	mov    %al,(%ebx,%edx,1)
  4027a8:	83 c2 01             	add    $0x1,%edx
  4027ab:	39 f2                	cmp    %esi,%edx
  4027ad:	72 f2                	jb     4027a1 <.text+0xe1>
  4027af:	83 f9 40             	cmp    $0x40,%ecx
  4027b2:	74 ae                	je     402762 <.text+0xa2>
  4027b4:	83 f9 04             	cmp    $0x4,%ecx
  4027b7:	74 a9                	je     402762 <.text+0xa2>
  4027b9:	8b 44 24 10          	mov    0x10(%esp),%eax
  4027bd:	89 6c 24 0c          	mov    %ebp,0xc(%esp)
  4027c1:	89 44 24 08          	mov    %eax,0x8(%esp)
  4027c5:	8b 44 24 20          	mov    0x20(%esp),%eax
  4027c9:	89 44 24 04          	mov    %eax,0x4(%esp)
  4027cd:	8b 44 24 14          	mov    0x14(%esp),%eax
  4027d1:	89 04 24             	mov    %eax,(%esp)
  4027d4:	e8 57 1d 00 00       	call   404530 <_VirtualProtect@16>
  4027d9:	83 ec 10             	sub    $0x10,%esp
  4027dc:	83 c4 3c             	add    $0x3c,%esp
  4027df:	5b                   	pop    %ebx
  4027e0:	5e                   	pop    %esi
  4027e1:	5f                   	pop    %edi
  4027e2:	5d                   	pop    %ebp
  4027e3:	c3                   	ret    
  4027e4:	89 5c 24 08          	mov    %ebx,0x8(%esp)
  4027e8:	c7 44 24 04 1c 00 00 	movl   $0x1c,0x4(%esp)
  4027ef:	00 
  4027f0:	c7 04 24 40 92 40 00 	movl   $0x409240,(%esp)
  4027f7:	e8 c4 fe ff ff       	call   4026c0 <.text>
  4027fc:	8d 74 26 00          	lea    0x0(%esi,%eiz,1),%esi

00402800 <__pei386_runtime_relocator>:
  402800:	a1 60 e0 40 00       	mov    0x40e060,%eax
  402805:	85 c0                	test   %eax,%eax
  402807:	74 07                	je     402810 <__pei386_runtime_relocator+0x10>
  402809:	c3                   	ret    
  40280a:	8d b6 00 00 00 00    	lea    0x0(%esi),%esi
  402810:	c7 05 60 e0 40 00 01 	movl   $0x1,0x40e060
  402817:	00 00 00 
  40281a:	b8 dc 94 40 00       	mov    $0x4094dc,%eax
  40281f:	2d 94 94 40 00       	sub    $0x409494,%eax
  402824:	83 f8 07             	cmp    $0x7,%eax
  402827:	7e e0                	jle    402809 <__pei386_runtime_relocator+0x9>
  402829:	55                   	push   %ebp
  40282a:	57                   	push   %edi
  40282b:	56                   	push   %esi
  40282c:	53                   	push   %ebx
  40282d:	83 ec 2c             	sub    $0x2c,%esp
  402830:	8b 15 94 94 40 00    	mov    0x409494,%edx
  402836:	83 f8 0b             	cmp    $0xb,%eax
  402839:	0f 8f 81 00 00 00    	jg     4028c0 <__pei386_runtime_relocator+0xc0>
  40283f:	bb 94 94 40 00       	mov    $0x409494,%ebx
  402844:	85 d2                	test   %edx,%edx
  402846:	0f 85 29 01 00 00    	jne    402975 <__pei386_runtime_relocator+0x175>
  40284c:	8b 43 04             	mov    0x4(%ebx),%eax
  40284f:	85 c0                	test   %eax,%eax
  402851:	0f 85 1e 01 00 00    	jne    402975 <__pei386_runtime_relocator+0x175>
  402857:	8b 43 08             	mov    0x8(%ebx),%eax
  40285a:	83 f8 01             	cmp    $0x1,%eax
  40285d:	0f 85 67 01 00 00    	jne    4029ca <__pei386_runtime_relocator+0x1ca>
  402863:	83 c3 0c             	add    $0xc,%ebx
  402866:	81 fb dc 94 40 00    	cmp    $0x4094dc,%ebx
  40286c:	73 4a                	jae    4028b8 <__pei386_runtime_relocator+0xb8>
  40286e:	8b 13                	mov    (%ebx),%edx
  402870:	8b 73 04             	mov    0x4(%ebx),%esi
  402873:	0f b6 4b 08          	movzbl 0x8(%ebx),%ecx
  402877:	8d ba 00 00 40 00    	lea    0x400000(%edx),%edi
  40287d:	8d 86 00 00 40 00    	lea    0x400000(%esi),%eax
  402883:	8b 92 00 00 40 00    	mov    0x400000(%edx),%edx
  402889:	83 f9 10             	cmp    $0x10,%ecx
  40288c:	0f 84 7e 00 00 00    	je     402910 <__pei386_runtime_relocator+0x110>
  402892:	83 f9 20             	cmp    $0x20,%ecx
  402895:	75 59                	jne    4028f0 <__pei386_runtime_relocator+0xf0>
  402897:	29 fa                	sub    %edi,%edx
  402899:	03 10                	add    (%eax),%edx
  40289b:	b9 04 00 00 00       	mov    $0x4,%ecx
  4028a0:	83 c3 0c             	add    $0xc,%ebx
  4028a3:	89 54 24 1c          	mov    %edx,0x1c(%esp)
  4028a7:	8d 54 24 1c          	lea    0x1c(%esp),%edx
  4028ab:	e8 60 fe ff ff       	call   402710 <.text+0x50>
  4028b0:	81 fb dc 94 40 00    	cmp    $0x4094dc,%ebx
  4028b6:	72 b6                	jb     40286e <__pei386_runtime_relocator+0x6e>
  4028b8:	83 c4 2c             	add    $0x2c,%esp
  4028bb:	5b                   	pop    %ebx
  4028bc:	5e                   	pop    %esi
  4028bd:	5f                   	pop    %edi
  4028be:	5d                   	pop    %ebp
  4028bf:	c3                   	ret    
  4028c0:	85 d2                	test   %edx,%edx
  4028c2:	0f 85 a8 00 00 00    	jne    402970 <__pei386_runtime_relocator+0x170>
  4028c8:	a1 98 94 40 00       	mov    0x409498,%eax
  4028cd:	89 c7                	mov    %eax,%edi
  4028cf:	0b 3d 9c 94 40 00    	or     0x40949c,%edi
  4028d5:	0f 85 e5 00 00 00    	jne    4029c0 <__pei386_runtime_relocator+0x1c0>
  4028db:	8b 15 a0 94 40 00    	mov    0x4094a0,%edx
  4028e1:	bb a0 94 40 00       	mov    $0x4094a0,%ebx
  4028e6:	e9 59 ff ff ff       	jmp    402844 <__pei386_runtime_relocator+0x44>
  4028eb:	8d 74 26 00          	lea    0x0(%esi,%eiz,1),%esi
  4028ef:	90                   	nop
  4028f0:	83 f9 08             	cmp    $0x8,%ecx
  4028f3:	74 4c                	je     402941 <__pei386_runtime_relocator+0x141>
  4028f5:	89 4c 24 04          	mov    %ecx,0x4(%esp)
  4028f9:	c7 04 24 a8 92 40 00 	movl   $0x4092a8,(%esp)
  402900:	c7 44 24 1c 00 00 00 	movl   $0x0,0x1c(%esp)
  402907:	00 
  402908:	e8 b3 fd ff ff       	call   4026c0 <.text>
  40290d:	8d 76 00             	lea    0x0(%esi),%esi
  402910:	0f b7 ae 00 00 40 00 	movzwl 0x400000(%esi),%ebp
  402917:	89 e9                	mov    %ebp,%ecx
  402919:	81 c9 00 00 ff ff    	or     $0xffff0000,%ecx
  40291f:	66 85 ed             	test   %bp,%bp
  402922:	78 02                	js     402926 <__pei386_runtime_relocator+0x126>
  402924:	89 e9                	mov    %ebp,%ecx
  402926:	29 f9                	sub    %edi,%ecx
  402928:	01 ca                	add    %ecx,%edx
  40292a:	b9 02 00 00 00       	mov    $0x2,%ecx
  40292f:	89 54 24 1c          	mov    %edx,0x1c(%esp)
  402933:	8d 54 24 1c          	lea    0x1c(%esp),%edx
  402937:	e8 d4 fd ff ff       	call   402710 <.text+0x50>
  40293c:	e9 22 ff ff ff       	jmp    402863 <__pei386_runtime_relocator+0x63>
  402941:	0f b6 30             	movzbl (%eax),%esi
  402944:	89 f1                	mov    %esi,%ecx
  402946:	84 c9                	test   %cl,%cl
  402948:	79 06                	jns    402950 <__pei386_runtime_relocator+0x150>
  40294a:	81 ce 00 ff ff ff    	or     $0xffffff00,%esi
  402950:	29 fe                	sub    %edi,%esi
  402952:	b9 01 00 00 00       	mov    $0x1,%ecx
  402957:	01 f2                	add    %esi,%edx
  402959:	89 54 24 1c          	mov    %edx,0x1c(%esp)
  40295d:	8d 54 24 1c          	lea    0x1c(%esp),%edx
  402961:	e8 aa fd ff ff       	call   402710 <.text+0x50>
  402966:	e9 f8 fe ff ff       	jmp    402863 <__pei386_runtime_relocator+0x63>
  40296b:	8d 74 26 00          	lea    0x0(%esi,%eiz,1),%esi
  40296f:	90                   	nop
  402970:	bb 94 94 40 00       	mov    $0x409494,%ebx
  402975:	81 fb dc 94 40 00    	cmp    $0x4094dc,%ebx
  40297b:	0f 83 37 ff ff ff    	jae    4028b8 <__pei386_runtime_relocator+0xb8>
  402981:	8b 4b 04             	mov    0x4(%ebx),%ecx
  402984:	8b 13                	mov    (%ebx),%edx
  402986:	83 c3 08             	add    $0x8,%ebx
  402989:	03 91 00 00 40 00    	add    0x400000(%ecx),%edx
  40298f:	8d 81 00 00 40 00    	lea    0x400000(%ecx),%eax
  402995:	b9 04 00 00 00       	mov    $0x4,%ecx
  40299a:	89 54 24 1c          	mov    %edx,0x1c(%esp)
  40299e:	8d 54 24 1c          	lea    0x1c(%esp),%edx
  4029a2:	e8 69 fd ff ff       	call   402710 <.text+0x50>
  4029a7:	81 fb dc 94 40 00    	cmp    $0x4094dc,%ebx
  4029ad:	72 d2                	jb     402981 <__pei386_runtime_relocator+0x181>
  4029af:	83 c4 2c             	add    $0x2c,%esp
  4029b2:	5b                   	pop    %ebx
  4029b3:	5e                   	pop    %esi
  4029b4:	5f                   	pop    %edi
  4029b5:	5d                   	pop    %ebp
  4029b6:	c3                   	ret    
  4029b7:	8d b4 26 00 00 00 00 	lea    0x0(%esi,%eiz,1),%esi
  4029be:	66 90                	xchg   %ax,%ax
  4029c0:	bb 94 94 40 00       	mov    $0x409494,%ebx
  4029c5:	e9 85 fe ff ff       	jmp    40284f <__pei386_runtime_relocator+0x4f>
  4029ca:	89 44 24 04          	mov    %eax,0x4(%esp)
  4029ce:	c7 04 24 74 92 40 00 	movl   $0x409274,(%esp)
  4029d5:	e8 e6 fc ff ff       	call   4026c0 <.text>
  4029da:	90                   	nop
  4029db:	90                   	nop
  4029dc:	90                   	nop
  4029dd:	90                   	nop
  4029de:	90                   	nop
  4029df:	90                   	nop

004029e0 <___register_frame_info>:
  4029e0:	ff 25 fc f2 40 00    	jmp    *0x40f2fc
  4029e6:	90                   	nop
  4029e7:	90                   	nop

004029e8 <___deregister_frame_info>:
  4029e8:	ff 25 f8 f2 40 00    	jmp    *0x40f2f8
  4029ee:	90                   	nop
  4029ef:	90                   	nop

004029f0 <__Unwind_Resume>:
  4029f0:	ff 25 f4 f2 40 00    	jmp    *0x40f2f4
  4029f6:	90                   	nop
  4029f7:	90                   	nop

004029f8 <___chkstk_ms>:
  4029f8:	51                   	push   %ecx
  4029f9:	50                   	push   %eax
  4029fa:	3d 00 10 00 00       	cmp    $0x1000,%eax
  4029ff:	8d 4c 24 0c          	lea    0xc(%esp),%ecx
  402a03:	72 15                	jb     402a1a <___chkstk_ms+0x22>
  402a05:	81 e9 00 10 00 00    	sub    $0x1000,%ecx
  402a0b:	83 09 00             	orl    $0x0,(%ecx)
  402a0e:	2d 00 10 00 00       	sub    $0x1000,%eax
  402a13:	3d 00 10 00 00       	cmp    $0x1000,%eax
  402a18:	77 eb                	ja     402a05 <___chkstk_ms+0xd>
  402a1a:	29 c1                	sub    %eax,%ecx
  402a1c:	83 09 00             	orl    $0x0,(%ecx)
  402a1f:	58                   	pop    %eax
  402a20:	59                   	pop    %ecx
  402a21:	c3                   	ret    
  402a22:	90                   	nop
  402a23:	90                   	nop

00402a24 <.text>:
  402a24:	66 90                	xchg   %ax,%ax
  402a26:	66 90                	xchg   %ax,%ax
  402a28:	66 90                	xchg   %ax,%ax
  402a2a:	66 90                	xchg   %ax,%ax
  402a2c:	66 90                	xchg   %ax,%ax
  402a2e:	66 90                	xchg   %ax,%ax

00402a30 <_fesetenv>:
  402a30:	83 ec 1c             	sub    $0x1c,%esp
  402a33:	8b 44 24 20          	mov    0x20(%esp),%eax
  402a37:	c7 44 24 0c 80 1f 00 	movl   $0x1f80,0xc(%esp)
  402a3e:	00 
  402a3f:	83 f8 fd             	cmp    $0xfffffffd,%eax
  402a42:	74 4c                	je     402a90 <_fesetenv+0x60>
  402a44:	83 f8 fc             	cmp    $0xfffffffc,%eax
  402a47:	74 2c                	je     402a75 <_fesetenv+0x45>
  402a49:	85 c0                	test   %eax,%eax
  402a4b:	74 53                	je     402aa0 <_fesetenv+0x70>
  402a4d:	83 f8 ff             	cmp    $0xffffffff,%eax
  402a50:	74 48                	je     402a9a <_fesetenv+0x6a>
  402a52:	83 f8 fe             	cmp    $0xfffffffe,%eax
  402a55:	74 28                	je     402a7f <_fesetenv+0x4f>
  402a57:	d9 20                	fldenv (%eax)
  402a59:	0f b7 40 1c          	movzwl 0x1c(%eax),%eax
  402a5d:	89 44 24 0c          	mov    %eax,0xc(%esp)
  402a61:	f6 05 28 e0 40 00 10 	testb  $0x10,0x40e028
  402a68:	74 05                	je     402a6f <_fesetenv+0x3f>
  402a6a:	0f ae 54 24 0c       	ldmxcsr 0xc(%esp)
  402a6f:	31 c0                	xor    %eax,%eax
  402a71:	83 c4 1c             	add    $0x1c,%esp
  402a74:	c3                   	ret    
  402a75:	c7 05 14 80 40 00 fe 	movl   $0xfffffffe,0x408014
  402a7c:	ff ff ff 
  402a7f:	ff 15 94 f2 40 00    	call   *0x40f294
  402a85:	eb da                	jmp    402a61 <_fesetenv+0x31>
  402a87:	8d b4 26 00 00 00 00 	lea    0x0(%esi,%eiz,1),%esi
  402a8e:	66 90                	xchg   %ax,%ax
  402a90:	c7 05 14 80 40 00 ff 	movl   $0xffffffff,0x408014
  402a97:	ff ff ff 
  402a9a:	db e3                	fninit 
  402a9c:	eb c3                	jmp    402a61 <_fesetenv+0x31>
  402a9e:	66 90                	xchg   %ax,%ax
  402aa0:	a1 14 80 40 00       	mov    0x408014,%eax
  402aa5:	eb a6                	jmp    402a4d <_fesetenv+0x1d>
  402aa7:	90                   	nop
  402aa8:	90                   	nop
  402aa9:	90                   	nop
  402aaa:	90                   	nop
  402aab:	90                   	nop
  402aac:	90                   	nop
  402aad:	90                   	nop
  402aae:	90                   	nop
  402aaf:	90                   	nop

00402ab0 <.text>:
  402ab0:	55                   	push   %ebp
  402ab1:	89 cd                	mov    %ecx,%ebp
  402ab3:	57                   	push   %edi
  402ab4:	56                   	push   %esi
  402ab5:	89 d6                	mov    %edx,%esi
  402ab7:	53                   	push   %ebx
  402ab8:	83 ec 3c             	sub    $0x3c,%esp
  402abb:	0f be 18             	movsbl (%eax),%ebx
  402abe:	89 df                	mov    %ebx,%edi
  402ac0:	83 fb 2d             	cmp    $0x2d,%ebx
  402ac3:	0f 84 da 00 00 00    	je     402ba3 <.text+0xf3>
  402ac9:	89 c1                	mov    %eax,%ecx
  402acb:	83 fb 5d             	cmp    $0x5d,%ebx
  402ace:	0f 84 cf 00 00 00    	je     402ba3 <.text+0xf3>
  402ad4:	89 6c 24 28          	mov    %ebp,0x28(%esp)
  402ad8:	81 e5 00 40 00 00    	and    $0x4000,%ebp
  402ade:	89 74 24 1c          	mov    %esi,0x1c(%esp)
  402ae2:	89 6c 24 20          	mov    %ebp,0x20(%esp)
  402ae6:	eb 17                	jmp    402aff <.text+0x4f>
  402ae8:	8d b4 26 00 00 00 00 	lea    0x0(%esi,%eiz,1),%esi
  402aef:	90                   	nop
  402af0:	89 fb                	mov    %edi,%ebx
  402af2:	2b 5c 24 1c          	sub    0x1c(%esp),%ebx
  402af6:	85 db                	test   %ebx,%ebx
  402af8:	74 67                	je     402b61 <.text+0xb1>
  402afa:	89 e8                	mov    %ebp,%eax
  402afc:	0f be d8             	movsbl %al,%ebx
  402aff:	8d 71 01             	lea    0x1(%ecx),%esi
  402b02:	83 fb 5d             	cmp    $0x5d,%ebx
  402b05:	0f 84 c6 00 00 00    	je     402bd1 <.text+0x121>
  402b0b:	83 fb 2d             	cmp    $0x2d,%ebx
  402b0e:	0f 84 ac 00 00 00    	je     402bc0 <.text+0x110>
  402b14:	85 db                	test   %ebx,%ebx
  402b16:	0f 84 b5 00 00 00    	je     402bd1 <.text+0x121>
  402b1c:	83 fb 2f             	cmp    $0x2f,%ebx
  402b1f:	0f 84 ac 00 00 00    	je     402bd1 <.text+0x121>
  402b25:	83 fb 5c             	cmp    $0x5c,%ebx
  402b28:	0f 84 a3 00 00 00    	je     402bd1 <.text+0x121>
  402b2e:	0f b6 2e             	movzbl (%esi),%ebp
  402b31:	89 f1                	mov    %esi,%ecx
  402b33:	89 df                	mov    %ebx,%edi
  402b35:	8b 44 24 20          	mov    0x20(%esp),%eax
  402b39:	85 c0                	test   %eax,%eax
  402b3b:	75 b3                	jne    402af0 <.text+0x40>
  402b3d:	89 3c 24             	mov    %edi,(%esp)
  402b40:	89 4c 24 24          	mov    %ecx,0x24(%esp)
  402b44:	e8 37 19 00 00       	call   404480 <_tolower>
  402b49:	89 c3                	mov    %eax,%ebx
  402b4b:	8b 44 24 1c          	mov    0x1c(%esp),%eax
  402b4f:	89 04 24             	mov    %eax,(%esp)
  402b52:	e8 29 19 00 00       	call   404480 <_tolower>
  402b57:	8b 4c 24 24          	mov    0x24(%esp),%ecx
  402b5b:	29 c3                	sub    %eax,%ebx
  402b5d:	85 db                	test   %ebx,%ebx
  402b5f:	75 99                	jne    402afa <.text+0x4a>
  402b61:	8b 5c 24 28          	mov    0x28(%esp),%ebx
  402b65:	89 ea                	mov    %ebp,%edx
  402b67:	83 e3 20             	and    $0x20,%ebx
  402b6a:	8d 41 01             	lea    0x1(%ecx),%eax
  402b6d:	80 fa 5d             	cmp    $0x5d,%dl
  402b70:	74 61                	je     402bd3 <.text+0x123>
  402b72:	80 fa 7f             	cmp    $0x7f,%dl
  402b75:	74 17                	je     402b8e <.text+0xde>
  402b77:	84 d2                	test   %dl,%dl
  402b79:	74 56                	je     402bd1 <.text+0x121>
  402b7b:	0f b6 51 01          	movzbl 0x1(%ecx),%edx
  402b7f:	89 c1                	mov    %eax,%ecx
  402b81:	8d 41 01             	lea    0x1(%ecx),%eax
  402b84:	80 fa 5d             	cmp    $0x5d,%dl
  402b87:	74 4a                	je     402bd3 <.text+0x123>
  402b89:	80 fa 7f             	cmp    $0x7f,%dl
  402b8c:	75 e9                	jne    402b77 <.text+0xc7>
  402b8e:	0f b6 51 01          	movzbl 0x1(%ecx),%edx
  402b92:	85 db                	test   %ebx,%ebx
  402b94:	0f 85 16 02 00 00    	jne    402db0 <.text+0x300>
  402b9a:	8d 71 02             	lea    0x2(%ecx),%esi
  402b9d:	89 c1                	mov    %eax,%ecx
  402b9f:	89 f0                	mov    %esi,%eax
  402ba1:	eb d4                	jmp    402b77 <.text+0xc7>
  402ba3:	8d 48 01             	lea    0x1(%eax),%ecx
  402ba6:	0f b6 50 01          	movzbl 0x1(%eax),%edx
  402baa:	39 f3                	cmp    %esi,%ebx
  402bac:	0f 84 ae 01 00 00    	je     402d60 <.text+0x2b0>
  402bb2:	0f be da             	movsbl %dl,%ebx
  402bb5:	e9 1a ff ff ff       	jmp    402ad4 <.text+0x24>
  402bba:	8d b6 00 00 00 00    	lea    0x0(%esi),%esi
  402bc0:	0f b6 69 01          	movzbl 0x1(%ecx),%ebp
  402bc4:	89 e8                	mov    %ebp,%eax
  402bc6:	3c 5d                	cmp    $0x5d,%al
  402bc8:	74 16                	je     402be0 <.text+0x130>
  402bca:	0f be d8             	movsbl %al,%ebx
  402bcd:	85 db                	test   %ebx,%ebx
  402bcf:	75 1f                	jne    402bf0 <.text+0x140>
  402bd1:	31 c0                	xor    %eax,%eax
  402bd3:	83 c4 3c             	add    $0x3c,%esp
  402bd6:	5b                   	pop    %ebx
  402bd7:	5e                   	pop    %esi
  402bd8:	5f                   	pop    %edi
  402bd9:	5d                   	pop    %ebp
  402bda:	c3                   	ret    
  402bdb:	8d 74 26 00          	lea    0x0(%esi,%eiz,1),%esi
  402bdf:	90                   	nop
  402be0:	89 f1                	mov    %esi,%ecx
  402be2:	bf 2d 00 00 00       	mov    $0x2d,%edi
  402be7:	e9 49 ff ff ff       	jmp    402b35 <.text+0x85>
  402bec:	8d 74 26 00          	lea    0x0(%esi,%eiz,1),%esi
  402bf0:	8d 71 02             	lea    0x2(%ecx),%esi
  402bf3:	89 fd                	mov    %edi,%ebp
  402bf5:	39 df                	cmp    %ebx,%edi
  402bf7:	0f 8d b0 00 00 00    	jge    402cad <.text+0x1fd>
  402bfd:	89 74 24 2c          	mov    %esi,0x2c(%esp)
  402c01:	89 ee                	mov    %ebp,%esi
  402c03:	89 4c 24 24          	mov    %ecx,0x24(%esp)
  402c07:	eb 19                	jmp    402c22 <.text+0x172>
  402c09:	8d b4 26 00 00 00 00 	lea    0x0(%esi,%eiz,1),%esi
  402c10:	2b 74 24 1c          	sub    0x1c(%esp),%esi
  402c14:	85 f6                	test   %esi,%esi
  402c16:	74 33                	je     402c4b <.text+0x19b>
  402c18:	89 fe                	mov    %edi,%esi
  402c1a:	39 fb                	cmp    %edi,%ebx
  402c1c:	0f 84 81 00 00 00    	je     402ca3 <.text+0x1f3>
  402c22:	8b 54 24 20          	mov    0x20(%esp),%edx
  402c26:	8d 7e 01             	lea    0x1(%esi),%edi
  402c29:	89 fd                	mov    %edi,%ebp
  402c2b:	85 d2                	test   %edx,%edx
  402c2d:	75 e1                	jne    402c10 <.text+0x160>
  402c2f:	89 34 24             	mov    %esi,(%esp)
  402c32:	e8 49 18 00 00       	call   404480 <_tolower>
  402c37:	89 c6                	mov    %eax,%esi
  402c39:	8b 44 24 1c          	mov    0x1c(%esp),%eax
  402c3d:	89 04 24             	mov    %eax,(%esp)
  402c40:	e8 3b 18 00 00       	call   404480 <_tolower>
  402c45:	29 c6                	sub    %eax,%esi
  402c47:	85 f6                	test   %esi,%esi
  402c49:	75 cd                	jne    402c18 <.text+0x168>
  402c4b:	8b 4c 24 24          	mov    0x24(%esp),%ecx
  402c4f:	8b 74 24 2c          	mov    0x2c(%esp),%esi
  402c53:	0f b6 51 02          	movzbl 0x2(%ecx),%edx
  402c57:	8b 4c 24 28          	mov    0x28(%esp),%ecx
  402c5b:	83 e1 20             	and    $0x20,%ecx
  402c5e:	8d 46 01             	lea    0x1(%esi),%eax
  402c61:	80 fa 5d             	cmp    $0x5d,%dl
  402c64:	0f 84 69 ff ff ff    	je     402bd3 <.text+0x123>
  402c6a:	80 fa 7f             	cmp    $0x7f,%dl
  402c6d:	74 1f                	je     402c8e <.text+0x1de>
  402c6f:	84 d2                	test   %dl,%dl
  402c71:	0f 84 5a ff ff ff    	je     402bd1 <.text+0x121>
  402c77:	0f b6 56 01          	movzbl 0x1(%esi),%edx
  402c7b:	89 c6                	mov    %eax,%esi
  402c7d:	8d 46 01             	lea    0x1(%esi),%eax
  402c80:	80 fa 5d             	cmp    $0x5d,%dl
  402c83:	0f 84 4a ff ff ff    	je     402bd3 <.text+0x123>
  402c89:	80 fa 7f             	cmp    $0x7f,%dl
  402c8c:	75 e1                	jne    402c6f <.text+0x1bf>
  402c8e:	0f b6 56 01          	movzbl 0x1(%esi),%edx
  402c92:	85 c9                	test   %ecx,%ecx
  402c94:	0f 85 b6 00 00 00    	jne    402d50 <.text+0x2a0>
  402c9a:	8d 5e 02             	lea    0x2(%esi),%ebx
  402c9d:	89 c6                	mov    %eax,%esi
  402c9f:	89 d8                	mov    %ebx,%eax
  402ca1:	eb cc                	jmp    402c6f <.text+0x1bf>
  402ca3:	8b 4c 24 24          	mov    0x24(%esp),%ecx
  402ca7:	8b 74 24 2c          	mov    0x2c(%esp),%esi
  402cab:	89 ef                	mov    %ebp,%edi
  402cad:	39 df                	cmp    %ebx,%edi
  402caf:	0f 8e 67 fe ff ff    	jle    402b1c <.text+0x6c>
  402cb5:	89 4c 24 2c          	mov    %ecx,0x2c(%esp)
  402cb9:	8b 6c 24 20          	mov    0x20(%esp),%ebp
  402cbd:	89 74 24 24          	mov    %esi,0x24(%esp)
  402cc1:	eb 15                	jmp    402cd8 <.text+0x228>
  402cc3:	89 fe                	mov    %edi,%esi
  402cc5:	2b 74 24 1c          	sub    0x1c(%esp),%esi
  402cc9:	85 f6                	test   %esi,%esi
  402ccb:	74 2b                	je     402cf8 <.text+0x248>
  402ccd:	83 ef 01             	sub    $0x1,%edi
  402cd0:	39 fb                	cmp    %edi,%ebx
  402cd2:	0f 84 f8 00 00 00    	je     402dd0 <.text+0x320>
  402cd8:	85 ed                	test   %ebp,%ebp
  402cda:	75 e7                	jne    402cc3 <.text+0x213>
  402cdc:	89 3c 24             	mov    %edi,(%esp)
  402cdf:	e8 9c 17 00 00       	call   404480 <_tolower>
  402ce4:	89 c6                	mov    %eax,%esi
  402ce6:	8b 44 24 1c          	mov    0x1c(%esp),%eax
  402cea:	89 04 24             	mov    %eax,(%esp)
  402ced:	e8 8e 17 00 00       	call   404480 <_tolower>
  402cf2:	29 c6                	sub    %eax,%esi
  402cf4:	85 f6                	test   %esi,%esi
  402cf6:	75 d5                	jne    402ccd <.text+0x21d>
  402cf8:	8b 4c 24 2c          	mov    0x2c(%esp),%ecx
  402cfc:	8b 74 24 24          	mov    0x24(%esp),%esi
  402d00:	0f b6 51 02          	movzbl 0x2(%ecx),%edx
  402d04:	8b 4c 24 28          	mov    0x28(%esp),%ecx
  402d08:	83 e1 20             	and    $0x20,%ecx
  402d0b:	8d 46 01             	lea    0x1(%esi),%eax
  402d0e:	80 fa 5d             	cmp    $0x5d,%dl
  402d11:	0f 84 bc fe ff ff    	je     402bd3 <.text+0x123>
  402d17:	80 fa 7f             	cmp    $0x7f,%dl
  402d1a:	74 1f                	je     402d3b <.text+0x28b>
  402d1c:	84 d2                	test   %dl,%dl
  402d1e:	0f 84 ad fe ff ff    	je     402bd1 <.text+0x121>
  402d24:	0f b6 56 01          	movzbl 0x1(%esi),%edx
  402d28:	89 c6                	mov    %eax,%esi
  402d2a:	8d 46 01             	lea    0x1(%esi),%eax
  402d2d:	80 fa 5d             	cmp    $0x5d,%dl
  402d30:	0f 84 9d fe ff ff    	je     402bd3 <.text+0x123>
  402d36:	80 fa 7f             	cmp    $0x7f,%dl
  402d39:	75 e1                	jne    402d1c <.text+0x26c>
  402d3b:	0f b6 56 01          	movzbl 0x1(%esi),%edx
  402d3f:	85 c9                	test   %ecx,%ecx
  402d41:	75 7d                	jne    402dc0 <.text+0x310>
  402d43:	8d 5e 02             	lea    0x2(%esi),%ebx
  402d46:	89 c6                	mov    %eax,%esi
  402d48:	89 d8                	mov    %ebx,%eax
  402d4a:	eb d0                	jmp    402d1c <.text+0x26c>
  402d4c:	8d 74 26 00          	lea    0x0(%esi,%eiz,1),%esi
  402d50:	89 c6                	mov    %eax,%esi
  402d52:	e9 07 ff ff ff       	jmp    402c5e <.text+0x1ae>
  402d57:	8d b4 26 00 00 00 00 	lea    0x0(%esi,%eiz,1),%esi
  402d5e:	66 90                	xchg   %ax,%ax
  402d60:	83 e5 20             	and    $0x20,%ebp
  402d63:	8d 41 01             	lea    0x1(%ecx),%eax
  402d66:	80 fa 5d             	cmp    $0x5d,%dl
  402d69:	0f 84 64 fe ff ff    	je     402bd3 <.text+0x123>
  402d6f:	80 fa 7f             	cmp    $0x7f,%dl
  402d72:	74 1f                	je     402d93 <.text+0x2e3>
  402d74:	84 d2                	test   %dl,%dl
  402d76:	0f 84 55 fe ff ff    	je     402bd1 <.text+0x121>
  402d7c:	0f b6 51 01          	movzbl 0x1(%ecx),%edx
  402d80:	89 c1                	mov    %eax,%ecx
  402d82:	8d 41 01             	lea    0x1(%ecx),%eax
  402d85:	80 fa 5d             	cmp    $0x5d,%dl
  402d88:	0f 84 45 fe ff ff    	je     402bd3 <.text+0x123>
  402d8e:	80 fa 7f             	cmp    $0x7f,%dl
  402d91:	75 e1                	jne    402d74 <.text+0x2c4>
  402d93:	0f b6 51 01          	movzbl 0x1(%ecx),%edx
  402d97:	85 ed                	test   %ebp,%ebp
  402d99:	75 09                	jne    402da4 <.text+0x2f4>
  402d9b:	8d 59 02             	lea    0x2(%ecx),%ebx
  402d9e:	89 c1                	mov    %eax,%ecx
  402da0:	89 d8                	mov    %ebx,%eax
  402da2:	eb d0                	jmp    402d74 <.text+0x2c4>
  402da4:	89 c1                	mov    %eax,%ecx
  402da6:	eb bb                	jmp    402d63 <.text+0x2b3>
  402da8:	8d b4 26 00 00 00 00 	lea    0x0(%esi,%eiz,1),%esi
  402daf:	90                   	nop
  402db0:	89 c1                	mov    %eax,%ecx
  402db2:	e9 b3 fd ff ff       	jmp    402b6a <.text+0xba>
  402db7:	8d b4 26 00 00 00 00 	lea    0x0(%esi,%eiz,1),%esi
  402dbe:	66 90                	xchg   %ax,%ax
  402dc0:	89 c6                	mov    %eax,%esi
  402dc2:	e9 44 ff ff ff       	jmp    402d0b <.text+0x25b>
  402dc7:	8d b4 26 00 00 00 00 	lea    0x0(%esi,%eiz,1),%esi
  402dce:	66 90                	xchg   %ax,%ax
  402dd0:	8b 74 24 24          	mov    0x24(%esp),%esi
  402dd4:	e9 43 fd ff ff       	jmp    402b1c <.text+0x6c>
  402dd9:	8d b4 26 00 00 00 00 	lea    0x0(%esi,%eiz,1),%esi
  402de0:	55                   	push   %ebp
  402de1:	57                   	push   %edi
  402de2:	89 c7                	mov    %eax,%edi
  402de4:	56                   	push   %esi
  402de5:	53                   	push   %ebx
  402de6:	83 ec 2c             	sub    $0x2c,%esp
  402de9:	80 3a 2e             	cmpb   $0x2e,(%edx)
  402dec:	0f be 00             	movsbl (%eax),%eax
  402def:	89 4c 24 14          	mov    %ecx,0x14(%esp)
  402df3:	0f 84 27 01 00 00    	je     402f20 <.text+0x470>
  402df9:	8b 4c 24 14          	mov    0x14(%esp),%ecx
  402dfd:	89 d6                	mov    %edx,%esi
  402dff:	83 e1 20             	and    $0x20,%ecx
  402e02:	89 4c 24 18          	mov    %ecx,0x18(%esp)
  402e06:	89 c1                	mov    %eax,%ecx
  402e08:	0f be d1             	movsbl %cl,%edx
  402e0b:	89 f5                	mov    %esi,%ebp
  402e0d:	8d 47 01             	lea    0x1(%edi),%eax
  402e10:	85 d2                	test   %edx,%edx
  402e12:	0f 84 5c 01 00 00    	je     402f74 <.text+0x4c4>
  402e18:	80 f9 3f             	cmp    $0x3f,%cl
  402e1b:	0f 84 df 00 00 00    	je     402f00 <.text+0x450>
  402e21:	80 f9 5b             	cmp    $0x5b,%cl
  402e24:	0f 84 a6 00 00 00    	je     402ed0 <.text+0x420>
  402e2a:	80 f9 2a             	cmp    $0x2a,%cl
  402e2d:	74 53                	je     402e82 <.text+0x3d2>
  402e2f:	f6 44 24 14 20       	testb  $0x20,0x14(%esp)
  402e34:	75 09                	jne    402e3f <.text+0x38f>
  402e36:	83 fa 7f             	cmp    $0x7f,%edx
  402e39:	0f 84 21 01 00 00    	je     402f60 <.text+0x4b0>
  402e3f:	89 c7                	mov    %eax,%edi
  402e41:	0f be 1e             	movsbl (%esi),%ebx
  402e44:	84 db                	test   %bl,%bl
  402e46:	74 30                	je     402e78 <.text+0x3c8>
  402e48:	f7 44 24 14 00 40 00 	testl  $0x4000,0x14(%esp)
  402e4f:	00 
  402e50:	0f 85 ba 00 00 00    	jne    402f10 <.text+0x460>
  402e56:	89 14 24             	mov    %edx,(%esp)
  402e59:	89 54 24 1c          	mov    %edx,0x1c(%esp)
  402e5d:	e8 1e 16 00 00       	call   404480 <_tolower>
  402e62:	89 1c 24             	mov    %ebx,(%esp)
  402e65:	89 c5                	mov    %eax,%ebp
  402e67:	e8 14 16 00 00       	call   404480 <_tolower>
  402e6c:	8b 54 24 1c          	mov    0x1c(%esp),%edx
  402e70:	29 c5                	sub    %eax,%ebp
  402e72:	85 ed                	test   %ebp,%ebp
  402e74:	74 7e                	je     402ef4 <.text+0x444>
  402e76:	29 da                	sub    %ebx,%edx
  402e78:	83 c4 2c             	add    $0x2c,%esp
  402e7b:	89 d0                	mov    %edx,%eax
  402e7d:	5b                   	pop    %ebx
  402e7e:	5e                   	pop    %esi
  402e7f:	5f                   	pop    %edi
  402e80:	5d                   	pop    %ebp
  402e81:	c3                   	ret    
  402e82:	89 c3                	mov    %eax,%ebx
  402e84:	0f b6 47 01          	movzbl 0x1(%edi),%eax
  402e88:	3c 2a                	cmp    $0x2a,%al
  402e8a:	75 0e                	jne    402e9a <.text+0x3ea>
  402e8c:	8d 74 26 00          	lea    0x0(%esi,%eiz,1),%esi
  402e90:	83 c3 01             	add    $0x1,%ebx
  402e93:	0f b6 03             	movzbl (%ebx),%eax
  402e96:	3c 2a                	cmp    $0x2a,%al
  402e98:	74 f6                	je     402e90 <.text+0x3e0>
  402e9a:	31 d2                	xor    %edx,%edx
  402e9c:	84 c0                	test   %al,%al
  402e9e:	74 d8                	je     402e78 <.text+0x3c8>
  402ea0:	8b 74 24 14          	mov    0x14(%esp),%esi
  402ea4:	81 ce 00 00 01 00    	or     $0x10000,%esi
  402eaa:	89 f1                	mov    %esi,%ecx
  402eac:	89 ea                	mov    %ebp,%edx
  402eae:	89 d8                	mov    %ebx,%eax
  402eb0:	e8 2b ff ff ff       	call   402de0 <.text+0x330>
  402eb5:	85 c0                	test   %eax,%eax
  402eb7:	74 09                	je     402ec2 <.text+0x412>
  402eb9:	83 c5 01             	add    $0x1,%ebp
  402ebc:	80 7d ff 00          	cmpb   $0x0,-0x1(%ebp)
  402ec0:	75 e8                	jne    402eaa <.text+0x3fa>
  402ec2:	83 c4 2c             	add    $0x2c,%esp
  402ec5:	89 c2                	mov    %eax,%edx
  402ec7:	5b                   	pop    %ebx
  402ec8:	89 d0                	mov    %edx,%eax
  402eca:	5e                   	pop    %esi
  402ecb:	5f                   	pop    %edi
  402ecc:	5d                   	pop    %ebp
  402ecd:	c3                   	ret    
  402ece:	66 90                	xchg   %ax,%ax
  402ed0:	0f be 16             	movsbl (%esi),%edx
  402ed3:	85 d2                	test   %edx,%edx
  402ed5:	0f 84 00 01 00 00    	je     402fdb <.text+0x52b>
  402edb:	80 7f 01 21          	cmpb   $0x21,0x1(%edi)
  402edf:	74 5f                	je     402f40 <.text+0x490>
  402ee1:	8b 4c 24 14          	mov    0x14(%esp),%ecx
  402ee5:	e8 c6 fb ff ff       	call   402ab0 <.text>
  402eea:	89 c7                	mov    %eax,%edi
  402eec:	85 ff                	test   %edi,%edi
  402eee:	0f 84 dd 00 00 00    	je     402fd1 <.text+0x521>
  402ef4:	0f b6 0f             	movzbl (%edi),%ecx
  402ef7:	83 c6 01             	add    $0x1,%esi
  402efa:	e9 09 ff ff ff       	jmp    402e08 <.text+0x358>
  402eff:	90                   	nop
  402f00:	80 3e 00             	cmpb   $0x0,(%esi)
  402f03:	0f 84 dc 00 00 00    	je     402fe5 <.text+0x535>
  402f09:	89 c7                	mov    %eax,%edi
  402f0b:	eb e7                	jmp    402ef4 <.text+0x444>
  402f0d:	8d 76 00             	lea    0x0(%esi),%esi
  402f10:	89 d5                	mov    %edx,%ebp
  402f12:	29 dd                	sub    %ebx,%ebp
  402f14:	e9 59 ff ff ff       	jmp    402e72 <.text+0x3c2>
  402f19:	8d b4 26 00 00 00 00 	lea    0x0(%esi,%eiz,1),%esi
  402f20:	3c 2e                	cmp    $0x2e,%al
  402f22:	0f 84 d1 fe ff ff    	je     402df9 <.text+0x349>
  402f28:	f7 44 24 14 00 00 01 	testl  $0x10000,0x14(%esp)
  402f2f:	00 
  402f30:	0f 85 c3 fe ff ff    	jne    402df9 <.text+0x349>
  402f36:	8d 50 d2             	lea    -0x2e(%eax),%edx
  402f39:	e9 3a ff ff ff       	jmp    402e78 <.text+0x3c8>
  402f3e:	66 90                	xchg   %ax,%ax
  402f40:	8d 5f 02             	lea    0x2(%edi),%ebx
  402f43:	8b 4c 24 14          	mov    0x14(%esp),%ecx
  402f47:	89 d8                	mov    %ebx,%eax
  402f49:	e8 62 fb ff ff       	call   402ab0 <.text>
  402f4e:	85 c0                	test   %eax,%eax
  402f50:	74 2c                	je     402f7e <.text+0x4ce>
  402f52:	89 df                	mov    %ebx,%edi
  402f54:	eb 96                	jmp    402eec <.text+0x43c>
  402f56:	8d b4 26 00 00 00 00 	lea    0x0(%esi,%eiz,1),%esi
  402f5d:	8d 76 00             	lea    0x0(%esi),%esi
  402f60:	0f be 57 01          	movsbl 0x1(%edi),%edx
  402f64:	83 c7 02             	add    $0x2,%edi
  402f67:	85 d2                	test   %edx,%edx
  402f69:	0f 85 d2 fe ff ff    	jne    402e41 <.text+0x391>
  402f6f:	e9 cb fe ff ff       	jmp    402e3f <.text+0x38f>
  402f74:	0f be 16             	movsbl (%esi),%edx
  402f77:	f7 da                	neg    %edx
  402f79:	e9 fa fe ff ff       	jmp    402e78 <.text+0x3c8>
  402f7e:	0f b6 47 02          	movzbl 0x2(%edi),%eax
  402f82:	3c 5d                	cmp    $0x5d,%al
  402f84:	75 0a                	jne    402f90 <.text+0x4e0>
  402f86:	0f b6 47 03          	movzbl 0x3(%edi),%eax
  402f8a:	8d 5f 03             	lea    0x3(%edi),%ebx
  402f8d:	8d 76 00             	lea    0x0(%esi),%esi
  402f90:	8d 7b 01             	lea    0x1(%ebx),%edi
  402f93:	3c 5d                	cmp    $0x5d,%al
  402f95:	0f 84 51 ff ff ff    	je     402eec <.text+0x43c>
  402f9b:	3c 7f                	cmp    $0x7f,%al
  402f9d:	74 19                	je     402fb8 <.text+0x508>
  402f9f:	84 c0                	test   %al,%al
  402fa1:	74 2e                	je     402fd1 <.text+0x521>
  402fa3:	0f b6 43 01          	movzbl 0x1(%ebx),%eax
  402fa7:	89 fb                	mov    %edi,%ebx
  402fa9:	8d 7b 01             	lea    0x1(%ebx),%edi
  402fac:	3c 5d                	cmp    $0x5d,%al
  402fae:	0f 84 38 ff ff ff    	je     402eec <.text+0x43c>
  402fb4:	3c 7f                	cmp    $0x7f,%al
  402fb6:	75 e7                	jne    402f9f <.text+0x4ef>
  402fb8:	8b 54 24 18          	mov    0x18(%esp),%edx
  402fbc:	0f b6 43 01          	movzbl 0x1(%ebx),%eax
  402fc0:	85 d2                	test   %edx,%edx
  402fc2:	75 09                	jne    402fcd <.text+0x51d>
  402fc4:	8d 53 02             	lea    0x2(%ebx),%edx
  402fc7:	89 fb                	mov    %edi,%ebx
  402fc9:	89 d7                	mov    %edx,%edi
  402fcb:	eb d2                	jmp    402f9f <.text+0x4ef>
  402fcd:	89 fb                	mov    %edi,%ebx
  402fcf:	eb bf                	jmp    402f90 <.text+0x4e0>
  402fd1:	ba 5d 00 00 00       	mov    $0x5d,%edx
  402fd6:	e9 9d fe ff ff       	jmp    402e78 <.text+0x3c8>
  402fdb:	ba 5b 00 00 00       	mov    $0x5b,%edx
  402fe0:	e9 93 fe ff ff       	jmp    402e78 <.text+0x3c8>
  402fe5:	ba 3f 00 00 00       	mov    $0x3f,%edx
  402fea:	e9 89 fe ff ff       	jmp    402e78 <.text+0x3c8>
  402fef:	90                   	nop
  402ff0:	56                   	push   %esi
  402ff1:	89 d6                	mov    %edx,%esi
  402ff3:	c1 ee 05             	shr    $0x5,%esi
  402ff6:	53                   	push   %ebx
  402ff7:	31 db                	xor    %ebx,%ebx
  402ff9:	83 f6 01             	xor    $0x1,%esi
  402ffc:	8d 74 26 00          	lea    0x0(%esi,%eiz,1),%esi
  403000:	0f be 08             	movsbl (%eax),%ecx
  403003:	8d 50 01             	lea    0x1(%eax),%edx
  403006:	85 c9                	test   %ecx,%ecx
  403008:	74 2f                	je     403039 <.text+0x589>
  40300a:	f7 c6 01 00 00 00    	test   $0x1,%esi
  403010:	74 05                	je     403017 <.text+0x567>
  403012:	83 f9 7f             	cmp    $0x7f,%ecx
  403015:	74 49                	je     403060 <.text+0x5b0>
  403017:	85 db                	test   %ebx,%ebx
  403019:	75 25                	jne    403040 <.text+0x590>
  40301b:	83 f9 2a             	cmp    $0x2a,%ecx
  40301e:	74 50                	je     403070 <.text+0x5c0>
  403020:	83 f9 3f             	cmp    $0x3f,%ecx
  403023:	74 4b                	je     403070 <.text+0x5c0>
  403025:	89 d0                	mov    %edx,%eax
  403027:	31 db                	xor    %ebx,%ebx
  403029:	83 f9 5b             	cmp    $0x5b,%ecx
  40302c:	0f be 08             	movsbl (%eax),%ecx
  40302f:	0f 94 c3             	sete   %bl
  403032:	8d 50 01             	lea    0x1(%eax),%edx
  403035:	85 c9                	test   %ecx,%ecx
  403037:	75 d1                	jne    40300a <.text+0x55a>
  403039:	89 c8                	mov    %ecx,%eax
  40303b:	5b                   	pop    %ebx
  40303c:	5e                   	pop    %esi
  40303d:	c3                   	ret    
  40303e:	66 90                	xchg   %ax,%ax
  403040:	83 fb 01             	cmp    $0x1,%ebx
  403043:	7e 05                	jle    40304a <.text+0x59a>
  403045:	83 f9 5d             	cmp    $0x5d,%ecx
  403048:	74 26                	je     403070 <.text+0x5c0>
  40304a:	89 d0                	mov    %edx,%eax
  40304c:	83 f9 21             	cmp    $0x21,%ecx
  40304f:	74 af                	je     403000 <.text+0x550>
  403051:	83 c3 01             	add    $0x1,%ebx
  403054:	89 d0                	mov    %edx,%eax
  403056:	eb a8                	jmp    403000 <.text+0x550>
  403058:	8d b4 26 00 00 00 00 	lea    0x0(%esi,%eiz,1),%esi
  40305f:	90                   	nop
  403060:	80 78 01 00          	cmpb   $0x0,0x1(%eax)
  403064:	8d 50 02             	lea    0x2(%eax),%edx
  403067:	74 11                	je     40307a <.text+0x5ca>
  403069:	85 db                	test   %ebx,%ebx
  40306b:	74 b8                	je     403025 <.text+0x575>
  40306d:	eb e2                	jmp    403051 <.text+0x5a1>
  40306f:	90                   	nop
  403070:	b9 01 00 00 00       	mov    $0x1,%ecx
  403075:	5b                   	pop    %ebx
  403076:	5e                   	pop    %esi
  403077:	89 c8                	mov    %ecx,%eax
  403079:	c3                   	ret    
  40307a:	31 c9                	xor    %ecx,%ecx
  40307c:	eb bb                	jmp    403039 <.text+0x589>
  40307e:	66 90                	xchg   %ax,%ax
  403080:	56                   	push   %esi
  403081:	89 c6                	mov    %eax,%esi
  403083:	53                   	push   %ebx
  403084:	83 ec 14             	sub    $0x14,%esp
  403087:	8b 40 0c             	mov    0xc(%eax),%eax
  40308a:	8d 58 01             	lea    0x1(%eax),%ebx
  40308d:	8d 04 9d 00 00 00 00 	lea    0x0(,%ebx,4),%eax
  403094:	89 04 24             	mov    %eax,(%esp)
  403097:	e8 24 14 00 00       	call   4044c0 <_malloc>
  40309c:	89 46 08             	mov    %eax,0x8(%esi)
  40309f:	85 c0                	test   %eax,%eax
  4030a1:	74 21                	je     4030c4 <.text+0x614>
  4030a3:	c7 46 04 00 00 00 00 	movl   $0x0,0x4(%esi)
  4030aa:	85 db                	test   %ebx,%ebx
  4030ac:	7e 0e                	jle    4030bc <.text+0x60c>
  4030ae:	66 90                	xchg   %ax,%ax
  4030b0:	83 eb 01             	sub    $0x1,%ebx
  4030b3:	c7 04 98 00 00 00 00 	movl   $0x0,(%eax,%ebx,4)
  4030ba:	75 f4                	jne    4030b0 <.text+0x600>
  4030bc:	83 c4 14             	add    $0x14,%esp
  4030bf:	31 c0                	xor    %eax,%eax
  4030c1:	5b                   	pop    %ebx
  4030c2:	5e                   	pop    %esi
  4030c3:	c3                   	ret    
  4030c4:	83 c4 14             	add    $0x14,%esp
  4030c7:	b8 03 00 00 00       	mov    $0x3,%eax
  4030cc:	5b                   	pop    %ebx
  4030cd:	5e                   	pop    %esi
  4030ce:	c3                   	ret    
  4030cf:	90                   	nop
  4030d0:	57                   	push   %edi
  4030d1:	56                   	push   %esi
  4030d2:	89 c6                	mov    %eax,%esi
  4030d4:	53                   	push   %ebx
  4030d5:	89 d3                	mov    %edx,%ebx
  4030d7:	83 ec 10             	sub    $0x10,%esp
  4030da:	8b 42 0c             	mov    0xc(%edx),%eax
  4030dd:	03 42 04             	add    0x4(%edx),%eax
  4030e0:	8d 04 85 08 00 00 00 	lea    0x8(,%eax,4),%eax
  4030e7:	89 44 24 04          	mov    %eax,0x4(%esp)
  4030eb:	8b 42 08             	mov    0x8(%edx),%eax
  4030ee:	89 04 24             	mov    %eax,(%esp)
  4030f1:	e8 b2 13 00 00       	call   4044a8 <_realloc>
  4030f6:	85 c0                	test   %eax,%eax
  4030f8:	74 26                	je     403120 <.text+0x670>
  4030fa:	8b 4b 04             	mov    0x4(%ebx),%ecx
  4030fd:	8b 53 0c             	mov    0xc(%ebx),%edx
  403100:	89 43 08             	mov    %eax,0x8(%ebx)
  403103:	8d 79 01             	lea    0x1(%ecx),%edi
  403106:	01 d1                	add    %edx,%ecx
  403108:	01 fa                	add    %edi,%edx
  40310a:	89 7b 04             	mov    %edi,0x4(%ebx)
  40310d:	89 34 88             	mov    %esi,(%eax,%ecx,4)
  403110:	c7 04 90 00 00 00 00 	movl   $0x0,(%eax,%edx,4)
  403117:	83 c4 10             	add    $0x10,%esp
  40311a:	31 c0                	xor    %eax,%eax
  40311c:	5b                   	pop    %ebx
  40311d:	5e                   	pop    %esi
  40311e:	5f                   	pop    %edi
  40311f:	c3                   	ret    
  403120:	83 c4 10             	add    $0x10,%esp
  403123:	b8 01 00 00 00       	mov    $0x1,%eax
  403128:	5b                   	pop    %ebx
  403129:	5e                   	pop    %esi
  40312a:	5f                   	pop    %edi
  40312b:	c3                   	ret    
  40312c:	8d 74 26 00          	lea    0x0(%esi,%eiz,1),%esi
  403130:	56                   	push   %esi
  403131:	89 d6                	mov    %edx,%esi
  403133:	53                   	push   %ebx
  403134:	89 c3                	mov    %eax,%ebx
  403136:	83 ec 14             	sub    $0x14,%esp
  403139:	8b 00                	mov    (%eax),%eax
  40313b:	85 c0                	test   %eax,%eax
  40313d:	74 05                	je     403144 <.text+0x694>
  40313f:	e8 ec ff ff ff       	call   403130 <.text+0x680>
  403144:	8b 43 08             	mov    0x8(%ebx),%eax
  403147:	85 c0                	test   %eax,%eax
  403149:	74 04                	je     40314f <.text+0x69f>
  40314b:	85 f6                	test   %esi,%esi
  40314d:	75 21                	jne    403170 <.text+0x6c0>
  40314f:	8b 43 04             	mov    0x4(%ebx),%eax
  403152:	85 c0                	test   %eax,%eax
  403154:	74 07                	je     40315d <.text+0x6ad>
  403156:	89 f2                	mov    %esi,%edx
  403158:	e8 d3 ff ff ff       	call   403130 <.text+0x680>
  40315d:	89 1c 24             	mov    %ebx,(%esp)
  403160:	e8 6b 13 00 00       	call   4044d0 <_free>
  403165:	83 c4 14             	add    $0x14,%esp
  403168:	5b                   	pop    %ebx
  403169:	5e                   	pop    %esi
  40316a:	c3                   	ret    
  40316b:	8d 74 26 00          	lea    0x0(%esi,%eiz,1),%esi
  40316f:	90                   	nop
  403170:	89 f2                	mov    %esi,%edx
  403172:	e8 59 ff ff ff       	call   4030d0 <.text+0x620>
  403177:	eb d6                	jmp    40314f <.text+0x69f>
  403179:	8d b4 26 00 00 00 00 	lea    0x0(%esi,%eiz,1),%esi
  403180:	55                   	push   %ebp
  403181:	89 e5                	mov    %esp,%ebp
  403183:	57                   	push   %edi
  403184:	56                   	push   %esi
  403185:	53                   	push   %ebx
  403186:	83 ec 6c             	sub    $0x6c,%esp
  403189:	89 55 d0             	mov    %edx,-0x30(%ebp)
  40318c:	81 e2 00 04 00 00    	and    $0x400,%edx
  403192:	89 45 cc             	mov    %eax,-0x34(%ebp)
  403195:	89 4d c8             	mov    %ecx,-0x38(%ebp)
  403198:	0f 85 e2 02 00 00    	jne    403480 <.text+0x9d0>
  40319e:	8b 7d cc             	mov    -0x34(%ebp),%edi
  4031a1:	89 65 b8             	mov    %esp,-0x48(%ebp)
  4031a4:	89 3c 24             	mov    %edi,(%esp)
  4031a7:	e8 dc 12 00 00       	call   404488 <_strlen>
  4031ac:	8d 50 01             	lea    0x1(%eax),%edx
  4031af:	83 c0 10             	add    $0x10,%eax
  4031b2:	c1 e8 04             	shr    $0x4,%eax
  4031b5:	c1 e0 04             	shl    $0x4,%eax
  4031b8:	e8 3b f8 ff ff       	call   4029f8 <___chkstk_ms>
  4031bd:	29 c4                	sub    %eax,%esp
  4031bf:	8d 44 24 0c          	lea    0xc(%esp),%eax
  4031c3:	89 54 24 08          	mov    %edx,0x8(%esp)
  4031c7:	89 7c 24 04          	mov    %edi,0x4(%esp)
  4031cb:	89 04 24             	mov    %eax,(%esp)
  4031ce:	e8 dd 12 00 00       	call   4044b0 <_memcpy>
  4031d3:	89 04 24             	mov    %eax,(%esp)
  4031d6:	e8 65 09 00 00       	call   403b40 <___mingw_dirname>
  4031db:	c7 45 e4 00 00 00 00 	movl   $0x0,-0x1c(%ebp)
  4031e2:	89 45 bc             	mov    %eax,-0x44(%ebp)
  4031e5:	89 c7                	mov    %eax,%edi
  4031e7:	8d 45 d8             	lea    -0x28(%ebp),%eax
  4031ea:	e8 91 fe ff ff       	call   403080 <.text+0x5d0>
  4031ef:	89 45 d4             	mov    %eax,-0x2c(%ebp)
  4031f2:	85 c0                	test   %eax,%eax
  4031f4:	0f 85 96 03 00 00    	jne    403590 <.text+0xae0>
  4031fa:	85 ff                	test   %edi,%edi
  4031fc:	74 12                	je     403210 <.text+0x760>
  4031fe:	8b 55 d0             	mov    -0x30(%ebp),%edx
  403201:	89 f8                	mov    %edi,%eax
  403203:	e8 e8 fd ff ff       	call   402ff0 <.text+0x540>
  403208:	85 c0                	test   %eax,%eax
  40320a:	0f 85 d7 05 00 00    	jne    4037e7 <.text+0xd37>
  403210:	8b 75 bc             	mov    -0x44(%ebp),%esi
  403213:	89 e3                	mov    %esp,%ebx
  403215:	89 34 24             	mov    %esi,(%esp)
  403218:	e8 6b 12 00 00       	call   404488 <_strlen>
  40321d:	83 c0 10             	add    $0x10,%eax
  403220:	c1 e8 04             	shr    $0x4,%eax
  403223:	c1 e0 04             	shl    $0x4,%eax
  403226:	e8 cd f7 ff ff       	call   4029f8 <___chkstk_ms>
  40322b:	29 c4                	sub    %eax,%esp
  40322d:	89 f2                	mov    %esi,%edx
  40322f:	8d 7c 24 0c          	lea    0xc(%esp),%edi
  403233:	89 f9                	mov    %edi,%ecx
  403235:	0f b6 02             	movzbl (%edx),%eax
  403238:	8d 72 01             	lea    0x1(%edx),%esi
  40323b:	3c 7f                	cmp    $0x7f,%al
  40323d:	75 07                	jne    403246 <.text+0x796>
  40323f:	0f b6 42 01          	movzbl 0x1(%edx),%eax
  403243:	8d 72 02             	lea    0x2(%edx),%esi
  403246:	83 c1 01             	add    $0x1,%ecx
  403249:	88 41 ff             	mov    %al,-0x1(%ecx)
  40324c:	89 f2                	mov    %esi,%edx
  40324e:	84 c0                	test   %al,%al
  403250:	75 e3                	jne    403235 <.text+0x785>
  403252:	89 3c 24             	mov    %edi,(%esp)
  403255:	e8 66 13 00 00       	call   4045c0 <_strdup>
  40325a:	89 dc                	mov    %ebx,%esp
  40325c:	c7 45 d4 01 00 00 00 	movl   $0x1,-0x2c(%ebp)
  403263:	85 c0                	test   %eax,%eax
  403265:	0f 84 25 03 00 00    	je     403590 <.text+0xae0>
  40326b:	8d 55 d8             	lea    -0x28(%ebp),%edx
  40326e:	e8 5d fe ff ff       	call   4030d0 <.text+0x620>
  403273:	89 45 d4             	mov    %eax,-0x2c(%ebp)
  403276:	8b 4d d4             	mov    -0x2c(%ebp),%ecx
  403279:	85 c9                	test   %ecx,%ecx
  40327b:	0f 85 0f 03 00 00    	jne    403590 <.text+0xae0>
  403281:	8b 45 cc             	mov    -0x34(%ebp),%eax
  403284:	0f b6 40 01          	movzbl 0x1(%eax),%eax
  403288:	3c 2f                	cmp    $0x2f,%al
  40328a:	0f 84 16 03 00 00    	je     4035a6 <.text+0xaf6>
  403290:	3c 5c                	cmp    $0x5c,%al
  403292:	0f 84 0e 03 00 00    	je     4035a6 <.text+0xaf6>
  403298:	8b 75 bc             	mov    -0x44(%ebp),%esi
  40329b:	bf d4 92 40 00       	mov    $0x4092d4,%edi
  4032a0:	b9 02 00 00 00       	mov    $0x2,%ecx
  4032a5:	f3 a6                	repz cmpsb %es:(%edi),%ds:(%esi)
  4032a7:	0f 97 c0             	seta   %al
  4032aa:	1c 00                	sbb    $0x0,%al
  4032ac:	84 c0                	test   %al,%al
  4032ae:	0f 85 f2 02 00 00    	jne    4035a6 <.text+0xaf6>
  4032b4:	f6 45 d0 10          	testb  $0x10,-0x30(%ebp)
  4032b8:	0f 85 78 05 00 00    	jne    403836 <.text+0xd86>
  4032be:	c6 45 9b 5c          	movb   $0x5c,-0x65(%ebp)
  4032c2:	c7 45 bc 00 00 00 00 	movl   $0x0,-0x44(%ebp)
  4032c9:	8b 7d e0             	mov    -0x20(%ebp),%edi
  4032cc:	c7 45 d4 02 00 00 00 	movl   $0x2,-0x2c(%ebp)
  4032d3:	8b 07                	mov    (%edi),%eax
  4032d5:	85 c0                	test   %eax,%eax
  4032d7:	0f 84 d0 05 00 00    	je     4038ad <.text+0xdfd>
  4032dd:	8b 4d d0             	mov    -0x30(%ebp),%ecx
  4032e0:	81 e1 00 80 00 00    	and    $0x8000,%ecx
  4032e6:	89 4d c0             	mov    %ecx,-0x40(%ebp)
  4032e9:	eb 47                	jmp    403332 <.text+0x882>
  4032eb:	8d 74 26 00          	lea    0x0(%esi,%eiz,1),%esi
  4032ef:	90                   	nop
  4032f0:	f6 45 d0 04          	testb  $0x4,-0x30(%ebp)
  4032f4:	75 1d                	jne    403313 <.text+0x863>
  4032f6:	8b 75 c8             	mov    -0x38(%ebp),%esi
  4032f9:	85 f6                	test   %esi,%esi
  4032fb:	74 1d                	je     40331a <.text+0x86a>
  4032fd:	e8 fe 11 00 00       	call   404500 <__errno>
  403302:	8b 00                	mov    (%eax),%eax
  403304:	89 44 24 04          	mov    %eax,0x4(%esp)
  403308:	8b 07                	mov    (%edi),%eax
  40330a:	89 04 24             	mov    %eax,(%esp)
  40330d:	ff d6                	call   *%esi
  40330f:	85 c0                	test   %eax,%eax
  403311:	74 07                	je     40331a <.text+0x86a>
  403313:	c7 45 d4 01 00 00 00 	movl   $0x1,-0x2c(%ebp)
  40331a:	83 c7 04             	add    $0x4,%edi
  40331d:	8b 47 fc             	mov    -0x4(%edi),%eax
  403320:	89 04 24             	mov    %eax,(%esp)
  403323:	e8 a8 11 00 00       	call   4044d0 <_free>
  403328:	8b 07                	mov    (%edi),%eax
  40332a:	85 c0                	test   %eax,%eax
  40332c:	0f 84 8b 05 00 00    	je     4038bd <.text+0xe0d>
  403332:	83 7d d4 01          	cmpl   $0x1,-0x2c(%ebp)
  403336:	74 db                	je     403313 <.text+0x863>
  403338:	89 04 24             	mov    %eax,(%esp)
  40333b:	e8 80 0d 00 00       	call   4040c0 <___mingw_opendir>
  403340:	89 45 c4             	mov    %eax,-0x3c(%ebp)
  403343:	85 c0                	test   %eax,%eax
  403345:	74 a9                	je     4032f0 <.text+0x840>
  403347:	8b 45 bc             	mov    -0x44(%ebp),%eax
  40334a:	c7 45 b4 00 00 00 00 	movl   $0x0,-0x4c(%ebp)
  403351:	85 c0                	test   %eax,%eax
  403353:	74 0d                	je     403362 <.text+0x8b2>
  403355:	8b 07                	mov    (%edi),%eax
  403357:	89 04 24             	mov    %eax,(%esp)
  40335a:	e8 29 11 00 00       	call   404488 <_strlen>
  40335f:	89 45 b4             	mov    %eax,-0x4c(%ebp)
  403362:	8b 45 b4             	mov    -0x4c(%ebp),%eax
  403365:	c7 45 b0 00 00 00 00 	movl   $0x0,-0x50(%ebp)
  40336c:	83 c0 02             	add    $0x2,%eax
  40336f:	89 45 9c             	mov    %eax,-0x64(%ebp)
  403372:	8b 45 c4             	mov    -0x3c(%ebp),%eax
  403375:	89 04 24             	mov    %eax,(%esp)
  403378:	e8 43 0f 00 00       	call   4042c0 <___mingw_readdir>
  40337d:	89 c3                	mov    %eax,%ebx
  40337f:	85 c0                	test   %eax,%eax
  403381:	0f 84 89 04 00 00    	je     403810 <.text+0xd60>
  403387:	8b 75 c0             	mov    -0x40(%ebp),%esi
  40338a:	85 f6                	test   %esi,%esi
  40338c:	74 06                	je     403394 <.text+0x8e4>
  40338e:	83 7b 08 10          	cmpl   $0x10,0x8(%ebx)
  403392:	75 de                	jne    403372 <.text+0x8c2>
  403394:	8d 73 0c             	lea    0xc(%ebx),%esi
  403397:	8b 4d d0             	mov    -0x30(%ebp),%ecx
  40339a:	8b 45 cc             	mov    -0x34(%ebp),%eax
  40339d:	89 f2                	mov    %esi,%edx
  40339f:	e8 3c fa ff ff       	call   402de0 <.text+0x330>
  4033a4:	85 c0                	test   %eax,%eax
  4033a6:	75 ca                	jne    403372 <.text+0x8c2>
  4033a8:	0f b7 4b 06          	movzwl 0x6(%ebx),%ecx
  4033ac:	8b 45 9c             	mov    -0x64(%ebp),%eax
  4033af:	89 65 ac             	mov    %esp,-0x54(%ebp)
  4033b2:	8d 44 01 0f          	lea    0xf(%ecx,%eax,1),%eax
  4033b6:	c1 e8 04             	shr    $0x4,%eax
  4033b9:	c1 e0 04             	shl    $0x4,%eax
  4033bc:	e8 37 f6 ff ff       	call   4029f8 <___chkstk_ms>
  4033c1:	8b 5d b4             	mov    -0x4c(%ebp),%ebx
  4033c4:	29 c4                	sub    %eax,%esp
  4033c6:	8d 54 24 0c          	lea    0xc(%esp),%edx
  4033ca:	89 55 a4             	mov    %edx,-0x5c(%ebp)
  4033cd:	89 d0                	mov    %edx,%eax
  4033cf:	85 db                	test   %ebx,%ebx
  4033d1:	0f 85 eb 04 00 00    	jne    4038c2 <.text+0xe12>
  4033d7:	83 c1 01             	add    $0x1,%ecx
  4033da:	89 55 a0             	mov    %edx,-0x60(%ebp)
  4033dd:	89 4c 24 08          	mov    %ecx,0x8(%esp)
  4033e1:	89 74 24 04          	mov    %esi,0x4(%esp)
  4033e5:	89 04 24             	mov    %eax,(%esp)
  4033e8:	e8 c3 10 00 00       	call   4044b0 <_memcpy>
  4033ed:	8b 55 a0             	mov    -0x60(%ebp),%edx
  4033f0:	89 65 a8             	mov    %esp,-0x58(%ebp)
  4033f3:	89 14 24             	mov    %edx,(%esp)
  4033f6:	e8 8d 10 00 00       	call   404488 <_strlen>
  4033fb:	83 c0 10             	add    $0x10,%eax
  4033fe:	c1 e8 04             	shr    $0x4,%eax
  403401:	c1 e0 04             	shl    $0x4,%eax
  403404:	e8 ef f5 ff ff       	call   4029f8 <___chkstk_ms>
  403409:	8b 5d a4             	mov    -0x5c(%ebp),%ebx
  40340c:	29 c4                	sub    %eax,%esp
  40340e:	8d 74 24 0c          	lea    0xc(%esp),%esi
  403412:	89 f2                	mov    %esi,%edx
  403414:	0f b6 03             	movzbl (%ebx),%eax
  403417:	8d 4b 01             	lea    0x1(%ebx),%ecx
  40341a:	3c 7f                	cmp    $0x7f,%al
  40341c:	75 07                	jne    403425 <.text+0x975>
  40341e:	0f b6 43 01          	movzbl 0x1(%ebx),%eax
  403422:	8d 4b 02             	lea    0x2(%ebx),%ecx
  403425:	83 c2 01             	add    $0x1,%edx
  403428:	88 42 ff             	mov    %al,-0x1(%edx)
  40342b:	89 cb                	mov    %ecx,%ebx
  40342d:	84 c0                	test   %al,%al
  40342f:	75 e3                	jne    403414 <.text+0x964>
  403431:	89 34 24             	mov    %esi,(%esp)
  403434:	e8 87 11 00 00       	call   4045c0 <_strdup>
  403439:	8b 65 a8             	mov    -0x58(%ebp),%esp
  40343c:	89 c6                	mov    %eax,%esi
  40343e:	85 c0                	test   %eax,%eax
  403440:	0f 84 c5 04 00 00    	je     40390b <.text+0xe5b>
  403446:	8b 4d d4             	mov    -0x2c(%ebp),%ecx
  403449:	31 c0                	xor    %eax,%eax
  40344b:	83 f9 02             	cmp    $0x2,%ecx
  40344e:	0f 94 c0             	sete   %al
  403451:	83 e8 01             	sub    $0x1,%eax
  403454:	21 c1                	and    %eax,%ecx
  403456:	89 4d d4             	mov    %ecx,-0x2c(%ebp)
  403459:	f6 45 d0 40          	testb  $0x40,-0x30(%ebp)
  40345d:	0f 84 b4 04 00 00    	je     403917 <.text+0xe67>
  403463:	8b 55 08             	mov    0x8(%ebp),%edx
  403466:	85 d2                	test   %edx,%edx
  403468:	0f 85 27 05 00 00    	jne    403995 <.text+0xee5>
  40346e:	8b 65 ac             	mov    -0x54(%ebp),%esp
  403471:	e9 fc fe ff ff       	jmp    403372 <.text+0x8c2>
  403476:	8d b4 26 00 00 00 00 	lea    0x0(%esi,%eiz,1),%esi
  40347d:	8d 76 00             	lea    0x0(%esi),%esi
  403480:	89 65 bc             	mov    %esp,-0x44(%ebp)
  403483:	89 c6                	mov    %eax,%esi
  403485:	89 04 24             	mov    %eax,(%esp)
  403488:	e8 fb 0f 00 00       	call   404488 <_strlen>
  40348d:	83 c0 10             	add    $0x10,%eax
  403490:	c1 e8 04             	shr    $0x4,%eax
  403493:	c1 e0 04             	shl    $0x4,%eax
  403496:	e8 5d f5 ff ff       	call   4029f8 <___chkstk_ms>
  40349b:	0f b6 1e             	movzbl (%esi),%ebx
  40349e:	29 c4                	sub    %eax,%esp
  4034a0:	8d 7c 24 0c          	lea    0xc(%esp),%edi
  4034a4:	89 7d c0             	mov    %edi,-0x40(%ebp)
  4034a7:	8d 4e 01             	lea    0x1(%esi),%ecx
  4034aa:	80 fb 7f             	cmp    $0x7f,%bl
  4034ad:	74 22                	je     4034d1 <.text+0xa21>
  4034af:	80 fb 7b             	cmp    $0x7b,%bl
  4034b2:	74 4c                	je     403500 <.text+0xa50>
  4034b4:	8d 47 01             	lea    0x1(%edi),%eax
  4034b7:	88 1f                	mov    %bl,(%edi)
  4034b9:	84 db                	test   %bl,%bl
  4034bb:	0f 84 dd 00 00 00    	je     40359e <.text+0xaee>
  4034c1:	0f b6 5e 01          	movzbl 0x1(%esi),%ebx
  4034c5:	89 ce                	mov    %ecx,%esi
  4034c7:	89 c7                	mov    %eax,%edi
  4034c9:	8d 4e 01             	lea    0x1(%esi),%ecx
  4034cc:	80 fb 7f             	cmp    $0x7f,%bl
  4034cf:	75 de                	jne    4034af <.text+0x9ff>
  4034d1:	0f b6 5e 01          	movzbl 0x1(%esi),%ebx
  4034d5:	c6 07 7f             	movb   $0x7f,(%edi)
  4034d8:	84 db                	test   %bl,%bl
  4034da:	75 14                	jne    4034f0 <.text+0xa40>
  4034dc:	8d 46 02             	lea    0x2(%esi),%eax
  4034df:	83 c7 01             	add    $0x1,%edi
  4034e2:	89 ce                	mov    %ecx,%esi
  4034e4:	89 c1                	mov    %eax,%ecx
  4034e6:	eb cc                	jmp    4034b4 <.text+0xa04>
  4034e8:	8d b4 26 00 00 00 00 	lea    0x0(%esi,%eiz,1),%esi
  4034ef:	90                   	nop
  4034f0:	88 5f 01             	mov    %bl,0x1(%edi)
  4034f3:	83 c6 02             	add    $0x2,%esi
  4034f6:	0f b6 1e             	movzbl (%esi),%ebx
  4034f9:	83 c7 02             	add    $0x2,%edi
  4034fc:	eb a9                	jmp    4034a7 <.text+0x9f7>
  4034fe:	66 90                	xchg   %ax,%ax
  403500:	0f b6 5e 01          	movzbl 0x1(%esi),%ebx
  403504:	c7 45 c4 2c 00 00 00 	movl   $0x2c,-0x3c(%ebp)
  40350b:	89 f2                	mov    %esi,%edx
  40350d:	c7 45 d4 01 00 00 00 	movl   $0x1,-0x2c(%ebp)
  403514:	89 75 b8             	mov    %esi,-0x48(%ebp)
  403517:	89 d8                	mov    %ebx,%eax
  403519:	8d 72 01             	lea    0x1(%edx),%esi
  40351c:	3c 2c                	cmp    $0x2c,%al
  40351e:	74 21                	je     403541 <.text+0xa91>
  403520:	7e 3e                	jle    403560 <.text+0xab0>
  403522:	3c 7b                	cmp    $0x7b,%al
  403524:	74 5e                	je     403584 <.text+0xad4>
  403526:	3c 7d                	cmp    $0x7d,%al
  403528:	75 47                	jne    403571 <.text+0xac1>
  40352a:	83 6d d4 01          	subl   $0x1,-0x2c(%ebp)
  40352e:	0f 84 0f 01 00 00    	je     403643 <.text+0xb93>
  403534:	0f b6 42 02          	movzbl 0x2(%edx),%eax
  403538:	89 f2                	mov    %esi,%edx
  40353a:	8d 72 01             	lea    0x1(%edx),%esi
  40353d:	3c 2c                	cmp    $0x2c,%al
  40353f:	75 df                	jne    403520 <.text+0xa70>
  403541:	83 7d d4 01          	cmpl   $0x1,-0x2c(%ebp)
  403545:	75 ed                	jne    403534 <.text+0xa84>
  403547:	0f b6 42 02          	movzbl 0x2(%edx),%eax
  40354b:	c7 45 c4 7b 00 00 00 	movl   $0x7b,-0x3c(%ebp)
  403552:	89 f2                	mov    %esi,%edx
  403554:	eb c3                	jmp    403519 <.text+0xa69>
  403556:	8d b4 26 00 00 00 00 	lea    0x0(%esi,%eiz,1),%esi
  40355d:	8d 76 00             	lea    0x0(%esi),%esi
  403560:	84 c0                	test   %al,%al
  403562:	75 0d                	jne    403571 <.text+0xac1>
  403564:	c6 07 7b             	movb   $0x7b,(%edi)
  403567:	89 ce                	mov    %ecx,%esi
  403569:	83 c7 01             	add    $0x1,%edi
  40356c:	e9 36 ff ff ff       	jmp    4034a7 <.text+0x9f7>
  403571:	3c 7f                	cmp    $0x7f,%al
  403573:	75 bf                	jne    403534 <.text+0xa84>
  403575:	80 7a 02 00          	cmpb   $0x0,0x2(%edx)
  403579:	74 e9                	je     403564 <.text+0xab4>
  40357b:	0f b6 42 03          	movzbl 0x3(%edx),%eax
  40357f:	83 c2 02             	add    $0x2,%edx
  403582:	eb 95                	jmp    403519 <.text+0xa69>
  403584:	0f b6 42 02          	movzbl 0x2(%edx),%eax
  403588:	83 45 d4 01          	addl   $0x1,-0x2c(%ebp)
  40358c:	89 f2                	mov    %esi,%edx
  40358e:	eb 89                	jmp    403519 <.text+0xa69>
  403590:	8b 65 b8             	mov    -0x48(%ebp),%esp
  403593:	8b 45 d4             	mov    -0x2c(%ebp),%eax
  403596:	8d 65 f4             	lea    -0xc(%ebp),%esp
  403599:	5b                   	pop    %ebx
  40359a:	5e                   	pop    %esi
  40359b:	5f                   	pop    %edi
  40359c:	5d                   	pop    %ebp
  40359d:	c3                   	ret    
  40359e:	8b 65 bc             	mov    -0x44(%ebp),%esp
  4035a1:	e9 f8 fb ff ff       	jmp    40319e <.text+0x6ee>
  4035a6:	8b 45 bc             	mov    -0x44(%ebp),%eax
  4035a9:	89 04 24             	mov    %eax,(%esp)
  4035ac:	e8 d7 0e 00 00       	call   404488 <_strlen>
  4035b1:	8b 4d cc             	mov    -0x34(%ebp),%ecx
  4035b4:	01 c8                	add    %ecx,%eax
  4035b6:	0f b6 10             	movzbl (%eax),%edx
  4035b9:	88 55 9b             	mov    %dl,-0x65(%ebp)
  4035bc:	39 c1                	cmp    %eax,%ecx
  4035be:	0f 83 42 02 00 00    	jae    403806 <.text+0xd56>
  4035c4:	80 fa 2f             	cmp    $0x2f,%dl
  4035c7:	0f 84 39 02 00 00    	je     403806 <.text+0xd56>
  4035cd:	80 fa 5c             	cmp    $0x5c,%dl
  4035d0:	75 20                	jne    4035f2 <.text+0xb42>
  4035d2:	e9 2f 02 00 00       	jmp    403806 <.text+0xd56>
  4035d7:	8d b4 26 00 00 00 00 	lea    0x0(%esi,%eiz,1),%esi
  4035de:	66 90                	xchg   %ax,%ax
  4035e0:	80 fa 2f             	cmp    $0x2f,%dl
  4035e3:	0f 84 c5 03 00 00    	je     4039ae <.text+0xefe>
  4035e9:	80 fa 5c             	cmp    $0x5c,%dl
  4035ec:	0f 84 bc 03 00 00    	je     4039ae <.text+0xefe>
  4035f2:	83 e8 01             	sub    $0x1,%eax
  4035f5:	0f b6 10             	movzbl (%eax),%edx
  4035f8:	39 c1                	cmp    %eax,%ecx
  4035fa:	75 e4                	jne    4035e0 <.text+0xb30>
  4035fc:	88 55 9b             	mov    %dl,-0x65(%ebp)
  4035ff:	0f b6 45 9b          	movzbl -0x65(%ebp),%eax
  403603:	3c 5c                	cmp    $0x5c,%al
  403605:	74 08                	je     40360f <.text+0xb5f>
  403607:	3c 2f                	cmp    $0x2f,%al
  403609:	0f 85 aa 03 00 00    	jne    4039b9 <.text+0xf09>
  40360f:	0f b6 75 9b          	movzbl -0x65(%ebp),%esi
  403613:	8b 55 cc             	mov    -0x34(%ebp),%edx
  403616:	eb 0a                	jmp    403622 <.text+0xb72>
  403618:	8d b4 26 00 00 00 00 	lea    0x0(%esi,%eiz,1),%esi
  40361f:	90                   	nop
  403620:	89 c6                	mov    %eax,%esi
  403622:	83 c2 01             	add    $0x1,%edx
  403625:	0f b6 02             	movzbl (%edx),%eax
  403628:	3c 2f                	cmp    $0x2f,%al
  40362a:	0f 94 c3             	sete   %bl
  40362d:	3c 5c                	cmp    $0x5c,%al
  40362f:	0f 94 c1             	sete   %cl
  403632:	08 cb                	or     %cl,%bl
  403634:	75 ea                	jne    403620 <.text+0xb70>
  403636:	89 f0                	mov    %esi,%eax
  403638:	89 55 cc             	mov    %edx,-0x34(%ebp)
  40363b:	88 45 9b             	mov    %al,-0x65(%ebp)
  40363e:	e9 86 fc ff ff       	jmp    4032c9 <.text+0x819>
  403643:	83 7d c4 7b          	cmpl   $0x7b,-0x3c(%ebp)
  403647:	8b 75 b8             	mov    -0x48(%ebp),%esi
  40364a:	0f 85 14 ff ff ff    	jne    403564 <.text+0xab4>
  403650:	89 7d d4             	mov    %edi,-0x2c(%ebp)
  403653:	8b 7d d0             	mov    -0x30(%ebp),%edi
  403656:	8d b4 26 00 00 00 00 	lea    0x0(%esi,%eiz,1),%esi
  40365d:	8d 76 00             	lea    0x0(%esi),%esi
  403660:	8b 45 d4             	mov    -0x2c(%ebp),%eax
  403663:	ba 01 00 00 00       	mov    $0x1,%edx
  403668:	80 fb 7f             	cmp    $0x7f,%bl
  40366b:	0f 84 9a 00 00 00    	je     40370b <.text+0xc5b>
  403671:	83 c6 01             	add    $0x1,%esi
  403674:	89 c1                	mov    %eax,%ecx
  403676:	80 fb 7d             	cmp    $0x7d,%bl
  403679:	74 78                	je     4036f3 <.text+0xc43>
  40367b:	80 fb 2c             	cmp    $0x2c,%bl
  40367e:	0f 85 ac 00 00 00    	jne    403730 <.text+0xc80>
  403684:	83 fa 01             	cmp    $0x1,%edx
  403687:	0f 85 a3 00 00 00    	jne    403730 <.text+0xc80>
  40368d:	b8 01 00 00 00       	mov    $0x1,%eax
  403692:	89 f3                	mov    %esi,%ebx
  403694:	89 75 d0             	mov    %esi,-0x30(%ebp)
  403697:	89 c6                	mov    %eax,%esi
  403699:	8d b4 26 00 00 00 00 	lea    0x0(%esi,%eiz,1),%esi
  4036a0:	0f b6 53 01          	movzbl 0x1(%ebx),%edx
  4036a4:	8d 43 01             	lea    0x1(%ebx),%eax
  4036a7:	80 fa 7f             	cmp    $0x7f,%dl
  4036aa:	75 29                	jne    4036d5 <.text+0xc25>
  4036ac:	80 7b 02 00          	cmpb   $0x0,0x2(%ebx)
  4036b0:	75 18                	jne    4036ca <.text+0xc1a>
  4036b2:	e9 19 01 00 00       	jmp    4037d0 <.text+0xd20>
  4036b7:	8d b4 26 00 00 00 00 	lea    0x0(%esi,%eiz,1),%esi
  4036be:	66 90                	xchg   %ax,%ax
  4036c0:	80 78 01 00          	cmpb   $0x0,0x1(%eax)
  4036c4:	0f 84 06 01 00 00    	je     4037d0 <.text+0xd20>
  4036ca:	83 c0 02             	add    $0x2,%eax
  4036cd:	0f b6 10             	movzbl (%eax),%edx
  4036d0:	80 fa 7f             	cmp    $0x7f,%dl
  4036d3:	74 eb                	je     4036c0 <.text+0xc10>
  4036d5:	80 fa 7b             	cmp    $0x7b,%dl
  4036d8:	0f 84 d2 00 00 00    	je     4037b0 <.text+0xd00>
  4036de:	80 fa 7d             	cmp    $0x7d,%dl
  4036e1:	0f 84 d9 00 00 00    	je     4037c0 <.text+0xd10>
  4036e7:	84 d2                	test   %dl,%dl
  4036e9:	0f 84 e1 00 00 00    	je     4037d0 <.text+0xd20>
  4036ef:	89 c3                	mov    %eax,%ebx
  4036f1:	eb ad                	jmp    4036a0 <.text+0xbf0>
  4036f3:	83 ea 01             	sub    $0x1,%edx
  4036f6:	74 78                	je     403770 <.text+0xcc0>
  4036f8:	c6 01 7d             	movb   $0x7d,(%ecx)
  4036fb:	8d 41 01             	lea    0x1(%ecx),%eax
  4036fe:	0f b6 5e 01          	movzbl 0x1(%esi),%ebx
  403702:	80 fb 7f             	cmp    $0x7f,%bl
  403705:	0f 85 66 ff ff ff    	jne    403671 <.text+0xbc1>
  40370b:	0f b6 5e 02          	movzbl 0x2(%esi),%ebx
  40370f:	c6 00 7f             	movb   $0x7f,(%eax)
  403712:	8d 48 02             	lea    0x2(%eax),%ecx
  403715:	88 58 01             	mov    %bl,0x1(%eax)
  403718:	84 db                	test   %bl,%bl
  40371a:	74 34                	je     403750 <.text+0xca0>
  40371c:	0f b6 5e 03          	movzbl 0x3(%esi),%ebx
  403720:	83 c6 03             	add    $0x3,%esi
  403723:	e9 4e ff ff ff       	jmp    403676 <.text+0xbc6>
  403728:	8d b4 26 00 00 00 00 	lea    0x0(%esi,%eiz,1),%esi
  40372f:	90                   	nop
  403730:	8d 41 01             	lea    0x1(%ecx),%eax
  403733:	80 fb 7b             	cmp    $0x7b,%bl
  403736:	75 08                	jne    403740 <.text+0xc90>
  403738:	83 c2 01             	add    $0x1,%edx
  40373b:	c6 01 7b             	movb   $0x7b,(%ecx)
  40373e:	eb be                	jmp    4036fe <.text+0xc4e>
  403740:	88 19                	mov    %bl,(%ecx)
  403742:	84 db                	test   %bl,%bl
  403744:	75 b8                	jne    4036fe <.text+0xc4e>
  403746:	eb 0c                	jmp    403754 <.text+0xca4>
  403748:	8d b4 26 00 00 00 00 	lea    0x0(%esi,%eiz,1),%esi
  40374f:	90                   	nop
  403750:	c6 40 02 00          	movb   $0x0,0x2(%eax)
  403754:	c7 45 d4 01 00 00 00 	movl   $0x1,-0x2c(%ebp)
  40375b:	8b 45 d4             	mov    -0x2c(%ebp),%eax
  40375e:	8b 65 bc             	mov    -0x44(%ebp),%esp
  403761:	8d 65 f4             	lea    -0xc(%ebp),%esp
  403764:	5b                   	pop    %ebx
  403765:	5e                   	pop    %esi
  403766:	5f                   	pop    %edi
  403767:	5d                   	pop    %ebp
  403768:	c3                   	ret    
  403769:	8d b4 26 00 00 00 00 	lea    0x0(%esi,%eiz,1),%esi
  403770:	89 f0                	mov    %esi,%eax
  403772:	83 c0 01             	add    $0x1,%eax
  403775:	0f b6 10             	movzbl (%eax),%edx
  403778:	83 c1 01             	add    $0x1,%ecx
  40377b:	83 c0 01             	add    $0x1,%eax
  40377e:	88 51 ff             	mov    %dl,-0x1(%ecx)
  403781:	84 d2                	test   %dl,%dl
  403783:	75 f0                	jne    403775 <.text+0xcc5>
  403785:	8b 45 08             	mov    0x8(%ebp),%eax
  403788:	89 fa                	mov    %edi,%edx
  40378a:	83 cf 01             	or     $0x1,%edi
  40378d:	89 04 24             	mov    %eax,(%esp)
  403790:	8b 4d c8             	mov    -0x38(%ebp),%ecx
  403793:	8b 45 c0             	mov    -0x40(%ebp),%eax
  403796:	e8 e5 f9 ff ff       	call   403180 <.text+0x6d0>
  40379b:	83 f8 01             	cmp    $0x1,%eax
  40379e:	74 b4                	je     403754 <.text+0xca4>
  4037a0:	80 3e 2c             	cmpb   $0x2c,(%esi)
  4037a3:	75 3a                	jne    4037df <.text+0xd2f>
  4037a5:	0f b6 5e 01          	movzbl 0x1(%esi),%ebx
  4037a9:	e9 b2 fe ff ff       	jmp    403660 <.text+0xbb0>
  4037ae:	66 90                	xchg   %ax,%ax
  4037b0:	83 c6 01             	add    $0x1,%esi
  4037b3:	89 c3                	mov    %eax,%ebx
  4037b5:	e9 e6 fe ff ff       	jmp    4036a0 <.text+0xbf0>
  4037ba:	8d b6 00 00 00 00    	lea    0x0(%esi),%esi
  4037c0:	83 ee 01             	sub    $0x1,%esi
  4037c3:	0f 85 26 ff ff ff    	jne    4036ef <.text+0xc3f>
  4037c9:	8b 75 d0             	mov    -0x30(%ebp),%esi
  4037cc:	eb a4                	jmp    403772 <.text+0xcc2>
  4037ce:	66 90                	xchg   %ax,%ax
  4037d0:	c6 01 00             	movb   $0x0,(%ecx)
  4037d3:	c7 45 d4 01 00 00 00 	movl   $0x1,-0x2c(%ebp)
  4037da:	e9 7c ff ff ff       	jmp    40375b <.text+0xcab>
  4037df:	89 45 d4             	mov    %eax,-0x2c(%ebp)
  4037e2:	e9 74 ff ff ff       	jmp    40375b <.text+0xcab>
  4037e7:	8d 45 d8             	lea    -0x28(%ebp),%eax
  4037ea:	8b 55 d0             	mov    -0x30(%ebp),%edx
  4037ed:	89 04 24             	mov    %eax,(%esp)
  4037f0:	8b 4d c8             	mov    -0x38(%ebp),%ecx
  4037f3:	8b 45 bc             	mov    -0x44(%ebp),%eax
  4037f6:	80 ce 80             	or     $0x80,%dh
  4037f9:	e8 82 f9 ff ff       	call   403180 <.text+0x6d0>
  4037fe:	89 45 d4             	mov    %eax,-0x2c(%ebp)
  403801:	e9 70 fa ff ff       	jmp    403276 <.text+0x7c6>
  403806:	89 45 cc             	mov    %eax,-0x34(%ebp)
  403809:	e9 f1 fd ff ff       	jmp    4035ff <.text+0xb4f>
  40380e:	66 90                	xchg   %ax,%ax
  403810:	8b 45 c4             	mov    -0x3c(%ebp),%eax
  403813:	89 04 24             	mov    %eax,(%esp)
  403816:	e8 f5 0a 00 00       	call   404310 <___mingw_closedir>
  40381b:	8b 45 b0             	mov    -0x50(%ebp),%eax
  40381e:	85 c0                	test   %eax,%eax
  403820:	0f 84 f4 fa ff ff    	je     40331a <.text+0x86a>
  403826:	8b 55 08             	mov    0x8(%ebp),%edx
  403829:	8b 45 b0             	mov    -0x50(%ebp),%eax
  40382c:	e8 ff f8 ff ff       	call   403130 <.text+0x680>
  403831:	e9 e4 fa ff ff       	jmp    40331a <.text+0x86a>
  403836:	8b 7d cc             	mov    -0x34(%ebp),%edi
  403839:	8b 55 d0             	mov    -0x30(%ebp),%edx
  40383c:	89 f8                	mov    %edi,%eax
  40383e:	e8 ad f7 ff ff       	call   402ff0 <.text+0x540>
  403843:	89 45 d4             	mov    %eax,-0x2c(%ebp)
  403846:	85 c0                	test   %eax,%eax
  403848:	0f 85 70 fa ff ff    	jne    4032be <.text+0x80e>
  40384e:	89 3c 24             	mov    %edi,(%esp)
  403851:	89 e6                	mov    %esp,%esi
  403853:	e8 30 0c 00 00       	call   404488 <_strlen>
  403858:	83 c0 10             	add    $0x10,%eax
  40385b:	c1 e8 04             	shr    $0x4,%eax
  40385e:	c1 e0 04             	shl    $0x4,%eax
  403861:	e8 92 f1 ff ff       	call   4029f8 <___chkstk_ms>
  403866:	29 c4                	sub    %eax,%esp
  403868:	89 f9                	mov    %edi,%ecx
  40386a:	8d 5c 24 0c          	lea    0xc(%esp),%ebx
  40386e:	89 da                	mov    %ebx,%edx
  403870:	0f b6 01             	movzbl (%ecx),%eax
  403873:	8d 79 01             	lea    0x1(%ecx),%edi
  403876:	3c 7f                	cmp    $0x7f,%al
  403878:	75 07                	jne    403881 <.text+0xdd1>
  40387a:	0f b6 41 01          	movzbl 0x1(%ecx),%eax
  40387e:	8d 79 02             	lea    0x2(%ecx),%edi
  403881:	83 c2 01             	add    $0x1,%edx
  403884:	88 42 ff             	mov    %al,-0x1(%edx)
  403887:	89 f9                	mov    %edi,%ecx
  403889:	84 c0                	test   %al,%al
  40388b:	75 e3                	jne    403870 <.text+0xdc0>
  40388d:	89 1c 24             	mov    %ebx,(%esp)
  403890:	e8 2b 0d 00 00       	call   4045c0 <_strdup>
  403895:	89 f4                	mov    %esi,%esp
  403897:	85 c0                	test   %eax,%eax
  403899:	74 22                	je     4038bd <.text+0xe0d>
  40389b:	8b 55 08             	mov    0x8(%ebp),%edx
  40389e:	85 d2                	test   %edx,%edx
  4038a0:	74 1b                	je     4038bd <.text+0xe0d>
  4038a2:	8b 55 08             	mov    0x8(%ebp),%edx
  4038a5:	e8 26 f8 ff ff       	call   4030d0 <.text+0x620>
  4038aa:	8b 7d e0             	mov    -0x20(%ebp),%edi
  4038ad:	89 3c 24             	mov    %edi,(%esp)
  4038b0:	e8 1b 0c 00 00       	call   4044d0 <_free>
  4038b5:	8b 65 b8             	mov    -0x48(%ebp),%esp
  4038b8:	e9 d6 fc ff ff       	jmp    403593 <.text+0xae3>
  4038bd:	8b 7d e0             	mov    -0x20(%ebp),%edi
  4038c0:	eb eb                	jmp    4038ad <.text+0xdfd>
  4038c2:	8b 5d b4             	mov    -0x4c(%ebp),%ebx
  4038c5:	8b 07                	mov    (%edi),%eax
  4038c7:	89 4d a0             	mov    %ecx,-0x60(%ebp)
  4038ca:	89 14 24             	mov    %edx,(%esp)
  4038cd:	89 5c 24 08          	mov    %ebx,0x8(%esp)
  4038d1:	89 44 24 04          	mov    %eax,0x4(%esp)
  4038d5:	89 55 a8             	mov    %edx,-0x58(%ebp)
  4038d8:	e8 d3 0b 00 00       	call   4044b0 <_memcpy>
  4038dd:	0f b6 44 1c 0b       	movzbl 0xb(%esp,%ebx,1),%eax
  4038e2:	8b 55 a8             	mov    -0x58(%ebp),%edx
  4038e5:	8b 4d a0             	mov    -0x60(%ebp),%ecx
  4038e8:	3c 2f                	cmp    $0x2f,%al
  4038ea:	0f 84 b4 00 00 00    	je     4039a4 <.text+0xef4>
  4038f0:	3c 5c                	cmp    $0x5c,%al
  4038f2:	0f 84 ac 00 00 00    	je     4039a4 <.text+0xef4>
  4038f8:	8b 5d b4             	mov    -0x4c(%ebp),%ebx
  4038fb:	0f b6 45 9b          	movzbl -0x65(%ebp),%eax
  4038ff:	88 04 1a             	mov    %al,(%edx,%ebx,1)
  403902:	8d 44 1a 01          	lea    0x1(%edx,%ebx,1),%eax
  403906:	e9 cc fa ff ff       	jmp    4033d7 <.text+0x927>
  40390b:	c7 45 d4 03 00 00 00 	movl   $0x3,-0x2c(%ebp)
  403912:	e9 57 fb ff ff       	jmp    40346e <.text+0x9be>
  403917:	8b 5d b0             	mov    -0x50(%ebp),%ebx
  40391a:	85 db                	test   %ebx,%ebx
  40391c:	0f 84 a7 00 00 00    	je     4039c9 <.text+0xf19>
  403922:	8b 45 d0             	mov    -0x30(%ebp),%eax
  403925:	89 7d a8             	mov    %edi,-0x58(%ebp)
  403928:	25 00 40 00 00       	and    $0x4000,%eax
  40392d:	89 c7                	mov    %eax,%edi
  40392f:	eb 16                	jmp    403947 <.text+0xe97>
  403931:	e8 5a 0b 00 00       	call   404490 <_strcoll>
  403936:	8b 13                	mov    (%ebx),%edx
  403938:	8b 4b 04             	mov    0x4(%ebx),%ecx
  40393b:	85 c0                	test   %eax,%eax
  40393d:	7f 02                	jg     403941 <.text+0xe91>
  40393f:	89 d1                	mov    %edx,%ecx
  403941:	85 c9                	test   %ecx,%ecx
  403943:	74 17                	je     40395c <.text+0xeac>
  403945:	89 cb                	mov    %ecx,%ebx
  403947:	8b 43 08             	mov    0x8(%ebx),%eax
  40394a:	89 34 24             	mov    %esi,(%esp)
  40394d:	89 44 24 04          	mov    %eax,0x4(%esp)
  403951:	85 ff                	test   %edi,%edi
  403953:	75 dc                	jne    403931 <.text+0xe81>
  403955:	e8 5e 0c 00 00       	call   4045b8 <_stricoll>
  40395a:	eb da                	jmp    403936 <.text+0xe86>
  40395c:	8b 7d a8             	mov    -0x58(%ebp),%edi
  40395f:	89 45 a8             	mov    %eax,-0x58(%ebp)
  403962:	c7 04 24 0c 00 00 00 	movl   $0xc,(%esp)
  403969:	e8 52 0b 00 00       	call   4044c0 <_malloc>
  40396e:	8b 55 a8             	mov    -0x58(%ebp),%edx
  403971:	85 c0                	test   %eax,%eax
  403973:	0f 84 f5 fa ff ff    	je     40346e <.text+0x9be>
  403979:	89 70 08             	mov    %esi,0x8(%eax)
  40397c:	c7 40 04 00 00 00 00 	movl   $0x0,0x4(%eax)
  403983:	c7 00 00 00 00 00    	movl   $0x0,(%eax)
  403989:	85 d2                	test   %edx,%edx
  40398b:	7e 35                	jle    4039c2 <.text+0xf12>
  40398d:	89 43 04             	mov    %eax,0x4(%ebx)
  403990:	e9 d9 fa ff ff       	jmp    40346e <.text+0x9be>
  403995:	8b 55 08             	mov    0x8(%ebp),%edx
  403998:	89 f0                	mov    %esi,%eax
  40399a:	e8 31 f7 ff ff       	call   4030d0 <.text+0x620>
  40399f:	e9 ca fa ff ff       	jmp    40346e <.text+0x9be>
  4039a4:	8b 45 b4             	mov    -0x4c(%ebp),%eax
  4039a7:	01 d0                	add    %edx,%eax
  4039a9:	e9 29 fa ff ff       	jmp    4033d7 <.text+0x927>
  4039ae:	88 55 9b             	mov    %dl,-0x65(%ebp)
  4039b1:	89 45 cc             	mov    %eax,-0x34(%ebp)
  4039b4:	e9 46 fc ff ff       	jmp    4035ff <.text+0xb4f>
  4039b9:	c6 45 9b 5c          	movb   $0x5c,-0x65(%ebp)
  4039bd:	e9 07 f9 ff ff       	jmp    4032c9 <.text+0x819>
  4039c2:	89 03                	mov    %eax,(%ebx)
  4039c4:	e9 a5 fa ff ff       	jmp    40346e <.text+0x9be>
  4039c9:	c7 04 24 0c 00 00 00 	movl   $0xc,(%esp)
  4039d0:	e8 eb 0a 00 00       	call   4044c0 <_malloc>
  4039d5:	89 45 b0             	mov    %eax,-0x50(%ebp)
  4039d8:	85 c0                	test   %eax,%eax
  4039da:	0f 84 8e fa ff ff    	je     40346e <.text+0x9be>
  4039e0:	8b 45 b0             	mov    -0x50(%ebp),%eax
  4039e3:	89 70 08             	mov    %esi,0x8(%eax)
  4039e6:	c7 40 04 00 00 00 00 	movl   $0x0,0x4(%eax)
  4039ed:	c7 00 00 00 00 00    	movl   $0x0,(%eax)
  4039f3:	e9 76 fa ff ff       	jmp    40346e <.text+0x9be>
  4039f8:	8d b4 26 00 00 00 00 	lea    0x0(%esi,%eiz,1),%esi
  4039ff:	90                   	nop

00403a00 <___mingw_glob>:
  403a00:	55                   	push   %ebp
  403a01:	89 e5                	mov    %esp,%ebp
  403a03:	57                   	push   %edi
  403a04:	56                   	push   %esi
  403a05:	53                   	push   %ebx
  403a06:	83 ec 2c             	sub    $0x2c,%esp
  403a09:	8b 75 14             	mov    0x14(%ebp),%esi
  403a0c:	8b 5d 08             	mov    0x8(%ebp),%ebx
  403a0f:	8b 7d 0c             	mov    0xc(%ebp),%edi
  403a12:	85 f6                	test   %esi,%esi
  403a14:	74 08                	je     403a1e <___mingw_glob+0x1e>
  403a16:	f7 c7 02 00 00 00    	test   $0x2,%edi
  403a1c:	74 35                	je     403a53 <___mingw_glob+0x53>
  403a1e:	81 3e d6 92 40 00    	cmpl   $0x4092d6,(%esi)
  403a24:	74 0d                	je     403a33 <___mingw_glob+0x33>
  403a26:	89 f0                	mov    %esi,%eax
  403a28:	e8 53 f6 ff ff       	call   403080 <.text+0x5d0>
  403a2d:	c7 06 d6 92 40 00    	movl   $0x4092d6,(%esi)
  403a33:	89 34 24             	mov    %esi,(%esp)
  403a36:	8b 4d 10             	mov    0x10(%ebp),%ecx
  403a39:	89 fa                	mov    %edi,%edx
  403a3b:	89 d8                	mov    %ebx,%eax
  403a3d:	e8 3e f7 ff ff       	call   403180 <.text+0x6d0>
  403a42:	89 c1                	mov    %eax,%ecx
  403a44:	83 f8 02             	cmp    $0x2,%eax
  403a47:	74 17                	je     403a60 <___mingw_glob+0x60>
  403a49:	8d 65 f4             	lea    -0xc(%ebp),%esp
  403a4c:	89 c8                	mov    %ecx,%eax
  403a4e:	5b                   	pop    %ebx
  403a4f:	5e                   	pop    %esi
  403a50:	5f                   	pop    %edi
  403a51:	5d                   	pop    %ebp
  403a52:	c3                   	ret    
  403a53:	c7 46 0c 00 00 00 00 	movl   $0x0,0xc(%esi)
  403a5a:	eb c2                	jmp    403a1e <___mingw_glob+0x1e>
  403a5c:	8d 74 26 00          	lea    0x0(%esi,%eiz,1),%esi
  403a60:	83 e7 10             	and    $0x10,%edi
  403a63:	74 e4                	je     403a49 <___mingw_glob+0x49>
  403a65:	89 45 dc             	mov    %eax,-0x24(%ebp)
  403a68:	89 65 e4             	mov    %esp,-0x1c(%ebp)
  403a6b:	89 1c 24             	mov    %ebx,(%esp)
  403a6e:	e8 15 0a 00 00       	call   404488 <_strlen>
  403a73:	83 c0 10             	add    $0x10,%eax
  403a76:	c1 e8 04             	shr    $0x4,%eax
  403a79:	c1 e0 04             	shl    $0x4,%eax
  403a7c:	e8 77 ef ff ff       	call   4029f8 <___chkstk_ms>
  403a81:	8b 4d dc             	mov    -0x24(%ebp),%ecx
  403a84:	29 c4                	sub    %eax,%esp
  403a86:	8d 44 24 04          	lea    0x4(%esp),%eax
  403a8a:	89 45 e0             	mov    %eax,-0x20(%ebp)
  403a8d:	89 c2                	mov    %eax,%edx
  403a8f:	90                   	nop
  403a90:	0f b6 03             	movzbl (%ebx),%eax
  403a93:	8d 7b 01             	lea    0x1(%ebx),%edi
  403a96:	3c 7f                	cmp    $0x7f,%al
  403a98:	75 07                	jne    403aa1 <___mingw_glob+0xa1>
  403a9a:	0f b6 43 01          	movzbl 0x1(%ebx),%eax
  403a9e:	8d 7b 02             	lea    0x2(%ebx),%edi
  403aa1:	83 c2 01             	add    $0x1,%edx
  403aa4:	88 42 ff             	mov    %al,-0x1(%edx)
  403aa7:	89 fb                	mov    %edi,%ebx
  403aa9:	84 c0                	test   %al,%al
  403aab:	75 e3                	jne    403a90 <___mingw_glob+0x90>
  403aad:	8b 45 e0             	mov    -0x20(%ebp),%eax
  403ab0:	89 4d dc             	mov    %ecx,-0x24(%ebp)
  403ab3:	89 04 24             	mov    %eax,(%esp)
  403ab6:	e8 05 0b 00 00       	call   4045c0 <_strdup>
  403abb:	8b 65 e4             	mov    -0x1c(%ebp),%esp
  403abe:	8b 4d dc             	mov    -0x24(%ebp),%ecx
  403ac1:	85 c0                	test   %eax,%eax
  403ac3:	74 84                	je     403a49 <___mingw_glob+0x49>
  403ac5:	89 f2                	mov    %esi,%edx
  403ac7:	89 4d e4             	mov    %ecx,-0x1c(%ebp)
  403aca:	e8 01 f6 ff ff       	call   4030d0 <.text+0x620>
  403acf:	8b 4d e4             	mov    -0x1c(%ebp),%ecx
  403ad2:	e9 72 ff ff ff       	jmp    403a49 <___mingw_glob+0x49>
  403ad7:	8d b4 26 00 00 00 00 	lea    0x0(%esi,%eiz,1),%esi
  403ade:	66 90                	xchg   %ax,%ax

00403ae0 <___mingw_globfree>:
  403ae0:	57                   	push   %edi
  403ae1:	56                   	push   %esi
  403ae2:	53                   	push   %ebx
  403ae3:	83 ec 10             	sub    $0x10,%esp
  403ae6:	8b 74 24 20          	mov    0x20(%esp),%esi
  403aea:	81 3e d6 92 40 00    	cmpl   $0x4092d6,(%esi)
  403af0:	74 0e                	je     403b00 <___mingw_globfree+0x20>
  403af2:	83 c4 10             	add    $0x10,%esp
  403af5:	5b                   	pop    %ebx
  403af6:	5e                   	pop    %esi
  403af7:	5f                   	pop    %edi
  403af8:	c3                   	ret    
  403af9:	8d b4 26 00 00 00 00 	lea    0x0(%esi,%eiz,1),%esi
  403b00:	8b 7e 04             	mov    0x4(%esi),%edi
  403b03:	8b 5e 0c             	mov    0xc(%esi),%ebx
  403b06:	85 ff                	test   %edi,%edi
  403b08:	7e 1b                	jle    403b25 <___mingw_globfree+0x45>
  403b0a:	01 df                	add    %ebx,%edi
  403b0c:	8d 74 26 00          	lea    0x0(%esi,%eiz,1),%esi
  403b10:	8b 46 08             	mov    0x8(%esi),%eax
  403b13:	8b 04 98             	mov    (%eax,%ebx,4),%eax
  403b16:	83 c3 01             	add    $0x1,%ebx
  403b19:	89 04 24             	mov    %eax,(%esp)
  403b1c:	e8 af 09 00 00       	call   4044d0 <_free>
  403b21:	39 df                	cmp    %ebx,%edi
  403b23:	75 eb                	jne    403b10 <___mingw_globfree+0x30>
  403b25:	8b 46 08             	mov    0x8(%esi),%eax
  403b28:	89 44 24 20          	mov    %eax,0x20(%esp)
  403b2c:	83 c4 10             	add    $0x10,%esp
  403b2f:	5b                   	pop    %ebx
  403b30:	5e                   	pop    %esi
  403b31:	5f                   	pop    %edi
  403b32:	e9 99 09 00 00       	jmp    4044d0 <_free>
  403b37:	90                   	nop
  403b38:	90                   	nop
  403b39:	90                   	nop
  403b3a:	90                   	nop
  403b3b:	90                   	nop
  403b3c:	90                   	nop
  403b3d:	90                   	nop
  403b3e:	90                   	nop
  403b3f:	90                   	nop

00403b40 <___mingw_dirname>:
  403b40:	55                   	push   %ebp
  403b41:	89 e5                	mov    %esp,%ebp
  403b43:	57                   	push   %edi
  403b44:	56                   	push   %esi
  403b45:	53                   	push   %ebx
  403b46:	83 ec 2c             	sub    $0x2c,%esp
  403b49:	c7 44 24 04 00 00 00 	movl   $0x0,0x4(%esp)
  403b50:	00 
  403b51:	c7 04 24 02 00 00 00 	movl   $0x2,(%esp)
  403b58:	e8 43 09 00 00       	call   4044a0 <_setlocale>
  403b5d:	89 c3                	mov    %eax,%ebx
  403b5f:	85 c0                	test   %eax,%eax
  403b61:	74 0a                	je     403b6d <___mingw_dirname+0x2d>
  403b63:	89 04 24             	mov    %eax,(%esp)
  403b66:	e8 55 0a 00 00       	call   4045c0 <_strdup>
  403b6b:	89 c3                	mov    %eax,%ebx
  403b6d:	c7 44 24 04 e8 92 40 	movl   $0x4092e8,0x4(%esp)
  403b74:	00 
  403b75:	c7 04 24 02 00 00 00 	movl   $0x2,(%esp)
  403b7c:	e8 1f 09 00 00       	call   4044a0 <_setlocale>
  403b81:	8b 4d 08             	mov    0x8(%ebp),%ecx
  403b84:	85 c9                	test   %ecx,%ecx
  403b86:	74 08                	je     403b90 <___mingw_dirname+0x50>
  403b88:	8b 45 08             	mov    0x8(%ebp),%eax
  403b8b:	80 38 00             	cmpb   $0x0,(%eax)
  403b8e:	75 71                	jne    403c01 <___mingw_dirname+0xc1>
  403b90:	c7 44 24 08 00 00 00 	movl   $0x0,0x8(%esp)
  403b97:	00 
  403b98:	c7 44 24 04 ea 92 40 	movl   $0x4092ea,0x4(%esp)
  403b9f:	00 
  403ba0:	c7 04 24 00 00 00 00 	movl   $0x0,(%esp)
  403ba7:	e8 c4 08 00 00       	call   404470 <_wcstombs>
  403bac:	8d 70 01             	lea    0x1(%eax),%esi
  403baf:	89 74 24 04          	mov    %esi,0x4(%esp)
  403bb3:	a1 6c e0 40 00       	mov    0x40e06c,%eax
  403bb8:	89 04 24             	mov    %eax,(%esp)
  403bbb:	e8 e8 08 00 00       	call   4044a8 <_realloc>
  403bc0:	a3 6c e0 40 00       	mov    %eax,0x40e06c
  403bc5:	89 74 24 08          	mov    %esi,0x8(%esp)
  403bc9:	c7 44 24 04 ea 92 40 	movl   $0x4092ea,0x4(%esp)
  403bd0:	00 
  403bd1:	89 04 24             	mov    %eax,(%esp)
  403bd4:	e8 97 08 00 00       	call   404470 <_wcstombs>
  403bd9:	89 5c 24 04          	mov    %ebx,0x4(%esp)
  403bdd:	c7 04 24 02 00 00 00 	movl   $0x2,(%esp)
  403be4:	e8 b7 08 00 00       	call   4044a0 <_setlocale>
  403be9:	89 1c 24             	mov    %ebx,(%esp)
  403bec:	e8 df 08 00 00       	call   4044d0 <_free>
  403bf1:	8b 35 6c e0 40 00    	mov    0x40e06c,%esi
  403bf7:	8d 65 f4             	lea    -0xc(%ebp),%esp
  403bfa:	89 f0                	mov    %esi,%eax
  403bfc:	5b                   	pop    %ebx
  403bfd:	5e                   	pop    %esi
  403bfe:	5f                   	pop    %edi
  403bff:	5d                   	pop    %ebp
  403c00:	c3                   	ret    
  403c01:	89 65 dc             	mov    %esp,-0x24(%ebp)
  403c04:	c7 44 24 08 00 00 00 	movl   $0x0,0x8(%esp)
  403c0b:	00 
  403c0c:	8b 45 08             	mov    0x8(%ebp),%eax
  403c0f:	c7 04 24 00 00 00 00 	movl   $0x0,(%esp)
  403c16:	89 44 24 04          	mov    %eax,0x4(%esp)
  403c1a:	e8 99 08 00 00       	call   4044b8 <_mbstowcs>
  403c1f:	89 c2                	mov    %eax,%edx
  403c21:	8d 44 00 11          	lea    0x11(%eax,%eax,1),%eax
  403c25:	c1 e8 04             	shr    $0x4,%eax
  403c28:	c1 e0 04             	shl    $0x4,%eax
  403c2b:	e8 c8 ed ff ff       	call   4029f8 <___chkstk_ms>
  403c30:	29 c4                	sub    %eax,%esp
  403c32:	8d 7c 24 0c          	lea    0xc(%esp),%edi
  403c36:	89 7d e0             	mov    %edi,-0x20(%ebp)
  403c39:	89 54 24 08          	mov    %edx,0x8(%esp)
  403c3d:	8b 45 08             	mov    0x8(%ebp),%eax
  403c40:	89 3c 24             	mov    %edi,(%esp)
  403c43:	89 44 24 04          	mov    %eax,0x4(%esp)
  403c47:	e8 6c 08 00 00       	call   4044b8 <_mbstowcs>
  403c4c:	31 d2                	xor    %edx,%edx
  403c4e:	89 45 d8             	mov    %eax,-0x28(%ebp)
  403c51:	66 89 14 47          	mov    %dx,(%edi,%eax,2)
  403c55:	83 f8 01             	cmp    $0x1,%eax
  403c58:	76 38                	jbe    403c92 <___mingw_dirname+0x152>
  403c5a:	8b 45 e0             	mov    -0x20(%ebp),%eax
  403c5d:	8b 4d e0             	mov    -0x20(%ebp),%ecx
  403c60:	0f b7 38             	movzwl (%eax),%edi
  403c63:	0f b7 40 02          	movzwl 0x2(%eax),%eax
  403c67:	89 4d e4             	mov    %ecx,-0x1c(%ebp)
  403c6a:	66 83 ff 2f          	cmp    $0x2f,%di
  403c6e:	0f 84 ec 01 00 00    	je     403e60 <___mingw_dirname+0x320>
  403c74:	66 83 ff 5c          	cmp    $0x5c,%di
  403c78:	0f 84 e2 01 00 00    	je     403e60 <___mingw_dirname+0x320>
  403c7e:	66 83 f8 3a          	cmp    $0x3a,%ax
  403c82:	75 16                	jne    403c9a <___mingw_dirname+0x15a>
  403c84:	89 c8                	mov    %ecx,%eax
  403c86:	8d 49 04             	lea    0x4(%ecx),%ecx
  403c89:	89 4d e4             	mov    %ecx,-0x1c(%ebp)
  403c8c:	0f b7 78 04          	movzwl 0x4(%eax),%edi
  403c90:	eb 08                	jmp    403c9a <___mingw_dirname+0x15a>
  403c92:	89 f8                	mov    %edi,%eax
  403c94:	0f b7 3f             	movzwl (%edi),%edi
  403c97:	89 45 e4             	mov    %eax,-0x1c(%ebp)
  403c9a:	66 85 ff             	test   %di,%di
  403c9d:	75 11                	jne    403cb0 <___mingw_dirname+0x170>
  403c9f:	8b 65 dc             	mov    -0x24(%ebp),%esp
  403ca2:	e9 e9 fe ff ff       	jmp    403b90 <___mingw_dirname+0x50>
  403ca7:	8d b4 26 00 00 00 00 	lea    0x0(%esi,%eiz,1),%esi
  403cae:	66 90                	xchg   %ax,%ax
  403cb0:	8b 45 e4             	mov    -0x1c(%ebp),%eax
  403cb3:	89 fa                	mov    %edi,%edx
  403cb5:	89 c6                	mov    %eax,%esi
  403cb7:	eb 1b                	jmp    403cd4 <___mingw_dirname+0x194>
  403cb9:	8d b4 26 00 00 00 00 	lea    0x0(%esi,%eiz,1),%esi
  403cc0:	89 c1                	mov    %eax,%ecx
  403cc2:	66 83 fa 5c          	cmp    $0x5c,%dx
  403cc6:	74 12                	je     403cda <___mingw_dirname+0x19a>
  403cc8:	0f b7 51 02          	movzwl 0x2(%ecx),%edx
  403ccc:	83 c0 02             	add    $0x2,%eax
  403ccf:	66 85 d2             	test   %dx,%dx
  403cd2:	74 3c                	je     403d10 <___mingw_dirname+0x1d0>
  403cd4:	66 83 fa 2f          	cmp    $0x2f,%dx
  403cd8:	75 e6                	jne    403cc0 <___mingw_dirname+0x180>
  403cda:	0f b7 10             	movzwl (%eax),%edx
  403cdd:	66 83 fa 5c          	cmp    $0x5c,%dx
  403ce1:	74 0d                	je     403cf0 <___mingw_dirname+0x1b0>
  403ce3:	66 83 fa 2f          	cmp    $0x2f,%dx
  403ce7:	75 19                	jne    403d02 <___mingw_dirname+0x1c2>
  403ce9:	8d b4 26 00 00 00 00 	lea    0x0(%esi,%eiz,1),%esi
  403cf0:	83 c0 02             	add    $0x2,%eax
  403cf3:	0f b7 10             	movzwl (%eax),%edx
  403cf6:	66 83 fa 2f          	cmp    $0x2f,%dx
  403cfa:	74 f4                	je     403cf0 <___mingw_dirname+0x1b0>
  403cfc:	66 83 fa 5c          	cmp    $0x5c,%dx
  403d00:	74 ee                	je     403cf0 <___mingw_dirname+0x1b0>
  403d02:	89 c1                	mov    %eax,%ecx
  403d04:	66 85 d2             	test   %dx,%dx
  403d07:	74 07                	je     403d10 <___mingw_dirname+0x1d0>
  403d09:	89 c6                	mov    %eax,%esi
  403d0b:	eb bb                	jmp    403cc8 <___mingw_dirname+0x188>
  403d0d:	8d 76 00             	lea    0x0(%esi),%esi
  403d10:	39 75 e4             	cmp    %esi,-0x1c(%ebp)
  403d13:	0f 82 89 00 00 00    	jb     403da2 <___mingw_dirname+0x262>
  403d19:	66 83 ff 2f          	cmp    $0x2f,%di
  403d1d:	74 11                	je     403d30 <___mingw_dirname+0x1f0>
  403d1f:	66 83 ff 5c          	cmp    $0x5c,%di
  403d23:	74 0b                	je     403d30 <___mingw_dirname+0x1f0>
  403d25:	8b 45 e4             	mov    -0x1c(%ebp),%eax
  403d28:	b9 2e 00 00 00       	mov    $0x2e,%ecx
  403d2d:	66 89 08             	mov    %cx,(%eax)
  403d30:	8b 45 e4             	mov    -0x1c(%ebp),%eax
  403d33:	31 d2                	xor    %edx,%edx
  403d35:	66 89 50 02          	mov    %dx,0x2(%eax)
  403d39:	c7 44 24 08 00 00 00 	movl   $0x0,0x8(%esp)
  403d40:	00 
  403d41:	8b 45 e0             	mov    -0x20(%ebp),%eax
  403d44:	c7 04 24 00 00 00 00 	movl   $0x0,(%esp)
  403d4b:	89 44 24 04          	mov    %eax,0x4(%esp)
  403d4f:	e8 1c 07 00 00       	call   404470 <_wcstombs>
  403d54:	8d 78 01             	lea    0x1(%eax),%edi
  403d57:	89 7c 24 04          	mov    %edi,0x4(%esp)
  403d5b:	a1 6c e0 40 00       	mov    0x40e06c,%eax
  403d60:	89 04 24             	mov    %eax,(%esp)
  403d63:	e8 40 07 00 00       	call   4044a8 <_realloc>
  403d68:	a3 6c e0 40 00       	mov    %eax,0x40e06c
  403d6d:	89 c6                	mov    %eax,%esi
  403d6f:	89 7c 24 08          	mov    %edi,0x8(%esp)
  403d73:	8b 45 e0             	mov    -0x20(%ebp),%eax
  403d76:	89 34 24             	mov    %esi,(%esp)
  403d79:	89 44 24 04          	mov    %eax,0x4(%esp)
  403d7d:	e8 ee 06 00 00       	call   404470 <_wcstombs>
  403d82:	89 5c 24 04          	mov    %ebx,0x4(%esp)
  403d86:	c7 04 24 02 00 00 00 	movl   $0x2,(%esp)
  403d8d:	e8 0e 07 00 00       	call   4044a0 <_setlocale>
  403d92:	89 1c 24             	mov    %ebx,(%esp)
  403d95:	e8 36 07 00 00       	call   4044d0 <_free>
  403d9a:	8b 65 dc             	mov    -0x24(%ebp),%esp
  403d9d:	e9 55 fe ff ff       	jmp    403bf7 <___mingw_dirname+0xb7>
  403da2:	8d 46 fe             	lea    -0x2(%esi),%eax
  403da5:	39 45 e4             	cmp    %eax,-0x1c(%ebp)
  403da8:	0f 83 19 01 00 00    	jae    403ec7 <___mingw_dirname+0x387>
  403dae:	0f b7 56 fe          	movzwl -0x2(%esi),%edx
  403db2:	89 c6                	mov    %eax,%esi
  403db4:	66 83 fa 2f          	cmp    $0x2f,%dx
  403db8:	74 e8                	je     403da2 <___mingw_dirname+0x262>
  403dba:	66 83 fa 5c          	cmp    $0x5c,%dx
  403dbe:	74 e2                	je     403da2 <___mingw_dirname+0x262>
  403dc0:	31 ff                	xor    %edi,%edi
  403dc2:	8b 4d e0             	mov    -0x20(%ebp),%ecx
  403dc5:	66 89 78 02          	mov    %di,0x2(%eax)
  403dc9:	8b 45 e0             	mov    -0x20(%ebp),%eax
  403dcc:	0f b7 30             	movzwl (%eax),%esi
  403dcf:	66 83 fe 5c          	cmp    $0x5c,%si
  403dd3:	74 0b                	je     403de0 <___mingw_dirname+0x2a0>
  403dd5:	66 83 fe 2f          	cmp    $0x2f,%si
  403dd9:	0f 85 31 01 00 00    	jne    403f10 <___mingw_dirname+0x3d0>
  403ddf:	90                   	nop
  403de0:	83 c1 02             	add    $0x2,%ecx
  403de3:	0f b7 01             	movzwl (%ecx),%eax
  403de6:	66 83 f8 2f          	cmp    $0x2f,%ax
  403dea:	74 f4                	je     403de0 <___mingw_dirname+0x2a0>
  403dec:	66 83 f8 5c          	cmp    $0x5c,%ax
  403df0:	74 ee                	je     403de0 <___mingw_dirname+0x2a0>
  403df2:	89 c8                	mov    %ecx,%eax
  403df4:	2b 45 e0             	sub    -0x20(%ebp),%eax
  403df7:	83 f8 04             	cmp    $0x4,%eax
  403dfa:	0f 8e 10 01 00 00    	jle    403f10 <___mingw_dirname+0x3d0>
  403e00:	8b 4d e0             	mov    -0x20(%ebp),%ecx
  403e03:	89 cf                	mov    %ecx,%edi
  403e05:	eb 1a                	jmp    403e21 <___mingw_dirname+0x2e1>
  403e07:	8d b4 26 00 00 00 00 	lea    0x0(%esi,%eiz,1),%esi
  403e0e:	66 90                	xchg   %ax,%ax
  403e10:	8d 47 02             	lea    0x2(%edi),%eax
  403e13:	0f b7 57 02          	movzwl 0x2(%edi),%edx
  403e17:	66 83 fe 5c          	cmp    $0x5c,%si
  403e1b:	74 1b                	je     403e38 <___mingw_dirname+0x2f8>
  403e1d:	89 d6                	mov    %edx,%esi
  403e1f:	89 c7                	mov    %eax,%edi
  403e21:	66 85 f6             	test   %si,%si
  403e24:	74 6e                	je     403e94 <___mingw_dirname+0x354>
  403e26:	83 c1 02             	add    $0x2,%ecx
  403e29:	66 89 71 fe          	mov    %si,-0x2(%ecx)
  403e2d:	66 83 fe 2f          	cmp    $0x2f,%si
  403e31:	75 dd                	jne    403e10 <___mingw_dirname+0x2d0>
  403e33:	0f b7 17             	movzwl (%edi),%edx
  403e36:	89 f8                	mov    %edi,%eax
  403e38:	66 83 fa 5c          	cmp    $0x5c,%dx
  403e3c:	74 06                	je     403e44 <___mingw_dirname+0x304>
  403e3e:	66 83 fa 2f          	cmp    $0x2f,%dx
  403e42:	75 d9                	jne    403e1d <___mingw_dirname+0x2dd>
  403e44:	83 c0 02             	add    $0x2,%eax
  403e47:	0f b7 10             	movzwl (%eax),%edx
  403e4a:	66 83 fa 2f          	cmp    $0x2f,%dx
  403e4e:	74 f4                	je     403e44 <___mingw_dirname+0x304>
  403e50:	66 83 fa 5c          	cmp    $0x5c,%dx
  403e54:	74 ee                	je     403e44 <___mingw_dirname+0x304>
  403e56:	eb c5                	jmp    403e1d <___mingw_dirname+0x2dd>
  403e58:	8d b4 26 00 00 00 00 	lea    0x0(%esi,%eiz,1),%esi
  403e5f:	90                   	nop
  403e60:	66 39 c7             	cmp    %ax,%di
  403e63:	0f 85 31 fe ff ff    	jne    403c9a <___mingw_dirname+0x15a>
  403e69:	66 83 79 04 00       	cmpw   $0x0,0x4(%ecx)
  403e6e:	0f 85 26 fe ff ff    	jne    403c9a <___mingw_dirname+0x15a>
  403e74:	89 5c 24 04          	mov    %ebx,0x4(%esp)
  403e78:	c7 04 24 02 00 00 00 	movl   $0x2,(%esp)
  403e7f:	e8 1c 06 00 00       	call   4044a0 <_setlocale>
  403e84:	89 1c 24             	mov    %ebx,(%esp)
  403e87:	e8 44 06 00 00       	call   4044d0 <_free>
  403e8c:	8b 75 08             	mov    0x8(%ebp),%esi
  403e8f:	e9 06 ff ff ff       	jmp    403d9a <___mingw_dirname+0x25a>
  403e94:	8b 45 d8             	mov    -0x28(%ebp),%eax
  403e97:	31 f6                	xor    %esi,%esi
  403e99:	66 89 31             	mov    %si,(%ecx)
  403e9c:	89 44 24 08          	mov    %eax,0x8(%esp)
  403ea0:	8b 45 e0             	mov    -0x20(%ebp),%eax
  403ea3:	89 44 24 04          	mov    %eax,0x4(%esp)
  403ea7:	8b 45 08             	mov    0x8(%ebp),%eax
  403eaa:	89 04 24             	mov    %eax,(%esp)
  403ead:	e8 be 05 00 00       	call   404470 <_wcstombs>
  403eb2:	8b 75 08             	mov    0x8(%ebp),%esi
  403eb5:	83 f8 ff             	cmp    $0xffffffff,%eax
  403eb8:	0f 84 c4 fe ff ff    	je     403d82 <___mingw_dirname+0x242>
  403ebe:	c6 04 06 00          	movb   $0x0,(%esi,%eax,1)
  403ec2:	e9 bb fe ff ff       	jmp    403d82 <___mingw_dirname+0x242>
  403ec7:	0f 85 f3 fe ff ff    	jne    403dc0 <___mingw_dirname+0x280>
  403ecd:	66 83 ff 2f          	cmp    $0x2f,%di
  403ed1:	74 0a                	je     403edd <___mingw_dirname+0x39d>
  403ed3:	66 83 ff 5c          	cmp    $0x5c,%di
  403ed7:	0f 85 e3 fe ff ff    	jne    403dc0 <___mingw_dirname+0x280>
  403edd:	66 39 78 02          	cmp    %di,0x2(%eax)
  403ee1:	0f 85 d9 fe ff ff    	jne    403dc0 <___mingw_dirname+0x280>
  403ee7:	0f b7 50 04          	movzwl 0x4(%eax),%edx
  403eeb:	66 83 fa 5c          	cmp    $0x5c,%dx
  403eef:	0f 84 cb fe ff ff    	je     403dc0 <___mingw_dirname+0x280>
  403ef5:	66 83 fa 2f          	cmp    $0x2f,%dx
  403ef9:	0f 84 c1 fe ff ff    	je     403dc0 <___mingw_dirname+0x280>
  403eff:	89 f0                	mov    %esi,%eax
  403f01:	e9 ba fe ff ff       	jmp    403dc0 <___mingw_dirname+0x280>
  403f06:	8d b4 26 00 00 00 00 	lea    0x0(%esi,%eiz,1),%esi
  403f0d:	8d 76 00             	lea    0x0(%esi),%esi
  403f10:	8b 45 e0             	mov    -0x20(%ebp),%eax
  403f13:	66 39 70 02          	cmp    %si,0x2(%eax)
  403f17:	0f 85 e3 fe ff ff    	jne    403e00 <___mingw_dirname+0x2c0>
  403f1d:	0f b7 31             	movzwl (%ecx),%esi
  403f20:	e9 de fe ff ff       	jmp    403e03 <___mingw_dirname+0x2c3>
  403f25:	90                   	nop
  403f26:	90                   	nop
  403f27:	90                   	nop
  403f28:	90                   	nop
  403f29:	90                   	nop
  403f2a:	90                   	nop
  403f2b:	90                   	nop
  403f2c:	90                   	nop
  403f2d:	90                   	nop
  403f2e:	90                   	nop
  403f2f:	90                   	nop

00403f30 <.text>:
  403f30:	56                   	push   %esi
  403f31:	53                   	push   %ebx
  403f32:	89 d3                	mov    %edx,%ebx
  403f34:	81 ec 54 01 00 00    	sub    $0x154,%esp
  403f3a:	8d 54 24 10          	lea    0x10(%esp),%edx
  403f3e:	89 04 24             	mov    %eax,(%esp)
  403f41:	89 54 24 04          	mov    %edx,0x4(%esp)
  403f45:	e8 46 06 00 00       	call   404590 <_FindFirstFileA@8>
  403f4a:	83 ec 08             	sub    $0x8,%esp
  403f4d:	89 c6                	mov    %eax,%esi
  403f4f:	83 f8 ff             	cmp    $0xffffffff,%eax
  403f52:	74 5e                	je     403fb2 <.text+0x82>
  403f54:	31 c0                	xor    %eax,%eax
  403f56:	8d 4b 0c             	lea    0xc(%ebx),%ecx
  403f59:	66 89 43 06          	mov    %ax,0x6(%ebx)
  403f5d:	31 c0                	xor    %eax,%eax
  403f5f:	eb 12                	jmp    403f73 <.text+0x43>
  403f61:	0f b7 43 06          	movzwl 0x6(%ebx),%eax
  403f65:	83 c0 01             	add    $0x1,%eax
  403f68:	66 89 43 06          	mov    %ax,0x6(%ebx)
  403f6c:	66 3d 04 01          	cmp    $0x104,%ax
  403f70:	83 d1 00             	adc    $0x0,%ecx
  403f73:	0f b7 c0             	movzwl %ax,%eax
  403f76:	0f b6 44 04 3c       	movzbl 0x3c(%esp,%eax,1),%eax
  403f7b:	88 01                	mov    %al,(%ecx)
  403f7d:	84 c0                	test   %al,%al
  403f7f:	75 e0                	jne    403f61 <.text+0x31>
  403f81:	8b 44 24 10          	mov    0x10(%esp),%eax
  403f85:	24 58                	and    $0x58,%al
  403f87:	83 f8 10             	cmp    $0x10,%eax
  403f8a:	77 14                	ja     403fa0 <.text+0x70>
  403f8c:	89 43 08             	mov    %eax,0x8(%ebx)
  403f8f:	81 c4 54 01 00 00    	add    $0x154,%esp
  403f95:	89 f0                	mov    %esi,%eax
  403f97:	5b                   	pop    %ebx
  403f98:	5e                   	pop    %esi
  403f99:	c3                   	ret    
  403f9a:	8d b6 00 00 00 00    	lea    0x0(%esi),%esi
  403fa0:	c7 43 08 18 00 00 00 	movl   $0x18,0x8(%ebx)
  403fa7:	81 c4 54 01 00 00    	add    $0x154,%esp
  403fad:	89 f0                	mov    %esi,%eax
  403faf:	5b                   	pop    %ebx
  403fb0:	5e                   	pop    %esi
  403fb1:	c3                   	ret    
  403fb2:	e8 b9 05 00 00       	call   404570 <_GetLastError@0>
  403fb7:	89 c3                	mov    %eax,%ebx
  403fb9:	e8 42 05 00 00       	call   404500 <__errno>
  403fbe:	89 18                	mov    %ebx,(%eax)
  403fc0:	83 fb 03             	cmp    $0x3,%ebx
  403fc3:	74 24                	je     403fe9 <.text+0xb9>
  403fc5:	e8 36 05 00 00       	call   404500 <__errno>
  403fca:	81 38 0b 01 00 00    	cmpl   $0x10b,(%eax)
  403fd0:	74 24                	je     403ff6 <.text+0xc6>
  403fd2:	e8 29 05 00 00       	call   404500 <__errno>
  403fd7:	83 38 02             	cmpl   $0x2,(%eax)
  403fda:	74 b3                	je     403f8f <.text+0x5f>
  403fdc:	e8 1f 05 00 00       	call   404500 <__errno>
  403fe1:	c7 00 16 00 00 00    	movl   $0x16,(%eax)
  403fe7:	eb a6                	jmp    403f8f <.text+0x5f>
  403fe9:	e8 12 05 00 00       	call   404500 <__errno>
  403fee:	c7 00 02 00 00 00    	movl   $0x2,(%eax)
  403ff4:	eb 99                	jmp    403f8f <.text+0x5f>
  403ff6:	e8 05 05 00 00       	call   404500 <__errno>
  403ffb:	c7 00 14 00 00 00    	movl   $0x14,(%eax)
  404001:	eb 8c                	jmp    403f8f <.text+0x5f>
  404003:	8d b4 26 00 00 00 00 	lea    0x0(%esi,%eiz,1),%esi
  40400a:	8d b6 00 00 00 00    	lea    0x0(%esi),%esi
  404010:	56                   	push   %esi
  404011:	53                   	push   %ebx
  404012:	89 d3                	mov    %edx,%ebx
  404014:	81 ec 54 01 00 00    	sub    $0x154,%esp
  40401a:	8d 54 24 10          	lea    0x10(%esp),%edx
  40401e:	89 04 24             	mov    %eax,(%esp)
  404021:	89 54 24 04          	mov    %edx,0x4(%esp)
  404025:	e8 5e 05 00 00       	call   404588 <_FindNextFileA@8>
  40402a:	83 ec 08             	sub    $0x8,%esp
  40402d:	89 c6                	mov    %eax,%esi
  40402f:	85 c0                	test   %eax,%eax
  404031:	74 5f                	je     404092 <.text+0x162>
  404033:	31 c0                	xor    %eax,%eax
  404035:	8d 4b 0c             	lea    0xc(%ebx),%ecx
  404038:	66 89 43 06          	mov    %ax,0x6(%ebx)
  40403c:	31 c0                	xor    %eax,%eax
  40403e:	eb 12                	jmp    404052 <.text+0x122>
  404040:	0f b7 43 06          	movzwl 0x6(%ebx),%eax
  404044:	83 c0 01             	add    $0x1,%eax
  404047:	66 89 43 06          	mov    %ax,0x6(%ebx)
  40404b:	66 3d 04 01          	cmp    $0x104,%ax
  40404f:	83 d1 00             	adc    $0x0,%ecx
  404052:	0f b7 c0             	movzwl %ax,%eax
  404055:	0f b6 44 04 3c       	movzbl 0x3c(%esp,%eax,1),%eax
  40405a:	88 01                	mov    %al,(%ecx)
  40405c:	84 c0                	test   %al,%al
  40405e:	75 e0                	jne    404040 <.text+0x110>
  404060:	8b 44 24 10          	mov    0x10(%esp),%eax
  404064:	24 58                	and    $0x58,%al
  404066:	83 f8 10             	cmp    $0x10,%eax
  404069:	77 15                	ja     404080 <.text+0x150>
  40406b:	89 43 08             	mov    %eax,0x8(%ebx)
  40406e:	81 c4 54 01 00 00    	add    $0x154,%esp
  404074:	89 f0                	mov    %esi,%eax
  404076:	5b                   	pop    %ebx
  404077:	5e                   	pop    %esi
  404078:	c3                   	ret    
  404079:	8d b4 26 00 00 00 00 	lea    0x0(%esi,%eiz,1),%esi
  404080:	c7 43 08 18 00 00 00 	movl   $0x18,0x8(%ebx)
  404087:	81 c4 54 01 00 00    	add    $0x154,%esp
  40408d:	89 f0                	mov    %esi,%eax
  40408f:	5b                   	pop    %ebx
  404090:	5e                   	pop    %esi
  404091:	c3                   	ret    
  404092:	e8 d9 04 00 00       	call   404570 <_GetLastError@0>
  404097:	83 f8 12             	cmp    $0x12,%eax
  40409a:	74 d2                	je     40406e <.text+0x13e>
  40409c:	e8 5f 04 00 00       	call   404500 <__errno>
  4040a1:	c7 00 02 00 00 00    	movl   $0x2,(%eax)
  4040a7:	81 c4 54 01 00 00    	add    $0x154,%esp
  4040ad:	89 f0                	mov    %esi,%eax
  4040af:	5b                   	pop    %ebx
  4040b0:	5e                   	pop    %esi
  4040b1:	c3                   	ret    
  4040b2:	8d b4 26 00 00 00 00 	lea    0x0(%esi,%eiz,1),%esi
  4040b9:	8d b4 26 00 00 00 00 	lea    0x0(%esi,%eiz,1),%esi

004040c0 <___mingw_opendir>:
  4040c0:	55                   	push   %ebp
  4040c1:	57                   	push   %edi
  4040c2:	56                   	push   %esi
  4040c3:	53                   	push   %ebx
  4040c4:	81 ec 2c 01 00 00    	sub    $0x12c,%esp
  4040ca:	8b 84 24 40 01 00 00 	mov    0x140(%esp),%eax
  4040d1:	85 c0                	test   %eax,%eax
  4040d3:	0f 84 b7 01 00 00    	je     404290 <___mingw_opendir+0x1d0>
  4040d9:	80 38 00             	cmpb   $0x0,(%eax)
  4040dc:	0f 84 7e 01 00 00    	je     404260 <___mingw_opendir+0x1a0>
  4040e2:	8d 74 24 1c          	lea    0x1c(%esp),%esi
  4040e6:	c7 44 24 08 04 01 00 	movl   $0x104,0x8(%esp)
  4040ed:	00 
  4040ee:	89 44 24 04          	mov    %eax,0x4(%esp)
  4040f2:	89 34 24             	mov    %esi,(%esp)
  4040f5:	e8 fe 03 00 00       	call   4044f8 <__fullpath>
  4040fa:	80 7c 24 1c 00       	cmpb   $0x0,0x1c(%esp)
  4040ff:	89 f2                	mov    %esi,%edx
  404101:	74 4d                	je     404150 <___mingw_opendir+0x90>
  404103:	8b 0a                	mov    (%edx),%ecx
  404105:	83 c2 04             	add    $0x4,%edx
  404108:	8d 81 ff fe fe fe    	lea    -0x1010101(%ecx),%eax
  40410e:	f7 d1                	not    %ecx
  404110:	21 c8                	and    %ecx,%eax
  404112:	25 80 80 80 80       	and    $0x80808080,%eax
  404117:	74 ea                	je     404103 <___mingw_opendir+0x43>
  404119:	a9 80 80 00 00       	test   $0x8080,%eax
  40411e:	0f 84 2c 01 00 00    	je     404250 <___mingw_opendir+0x190>
  404124:	89 c3                	mov    %eax,%ebx
  404126:	00 c3                	add    %al,%bl
  404128:	83 da 03             	sbb    $0x3,%edx
  40412b:	29 f2                	sub    %esi,%edx
  40412d:	0f b6 4c 14 1b       	movzbl 0x1b(%esp,%edx,1),%ecx
  404132:	8d 04 16             	lea    (%esi,%edx,1),%eax
  404135:	80 f9 2f             	cmp    $0x2f,%cl
  404138:	74 40                	je     40417a <___mingw_opendir+0xba>
  40413a:	80 f9 5c             	cmp    $0x5c,%cl
  40413d:	74 3b                	je     40417a <___mingw_opendir+0xba>
  40413f:	b9 5c 00 00 00       	mov    $0x5c,%ecx
  404144:	66 89 08             	mov    %cx,(%eax)
  404147:	8d 44 16 01          	lea    0x1(%esi,%edx,1),%eax
  40414b:	eb 2d                	jmp    40417a <___mingw_opendir+0xba>
  40414d:	8d 76 00             	lea    0x0(%esi),%esi
  404150:	8b 0a                	mov    (%edx),%ecx
  404152:	83 c2 04             	add    $0x4,%edx
  404155:	8d 81 ff fe fe fe    	lea    -0x1010101(%ecx),%eax
  40415b:	f7 d1                	not    %ecx
  40415d:	21 c8                	and    %ecx,%eax
  40415f:	25 80 80 80 80       	and    $0x80808080,%eax
  404164:	74 ea                	je     404150 <___mingw_opendir+0x90>
  404166:	a9 80 80 00 00       	test   $0x8080,%eax
  40416b:	0f 84 cf 00 00 00    	je     404240 <___mingw_opendir+0x180>
  404171:	89 c3                	mov    %eax,%ebx
  404173:	00 c3                	add    %al,%bl
  404175:	89 d0                	mov    %edx,%eax
  404177:	83 d8 03             	sbb    $0x3,%eax
  40417a:	ba 2a 00 00 00       	mov    $0x2a,%edx
  40417f:	89 f3                	mov    %esi,%ebx
  404181:	66 89 10             	mov    %dx,(%eax)
  404184:	8b 13                	mov    (%ebx),%edx
  404186:	83 c3 04             	add    $0x4,%ebx
  404189:	8d 82 ff fe fe fe    	lea    -0x1010101(%edx),%eax
  40418f:	f7 d2                	not    %edx
  404191:	21 d0                	and    %edx,%eax
  404193:	25 80 80 80 80       	and    $0x80808080,%eax
  404198:	74 ea                	je     404184 <___mingw_opendir+0xc4>
  40419a:	a9 80 80 00 00       	test   $0x8080,%eax
  40419f:	75 06                	jne    4041a7 <___mingw_opendir+0xe7>
  4041a1:	c1 e8 10             	shr    $0x10,%eax
  4041a4:	83 c3 02             	add    $0x2,%ebx
  4041a7:	89 c1                	mov    %eax,%ecx
  4041a9:	00 c1                	add    %al,%cl
  4041ab:	83 db 03             	sbb    $0x3,%ebx
  4041ae:	29 f3                	sub    %esi,%ebx
  4041b0:	8d 83 1c 01 00 00    	lea    0x11c(%ebx),%eax
  4041b6:	89 04 24             	mov    %eax,(%esp)
  4041b9:	e8 02 03 00 00       	call   4044c0 <_malloc>
  4041be:	89 c5                	mov    %eax,%ebp
  4041c0:	85 c0                	test   %eax,%eax
  4041c2:	0f 84 b8 00 00 00    	je     404280 <___mingw_opendir+0x1c0>
  4041c8:	8d 4b 01             	lea    0x1(%ebx),%ecx
  4041cb:	8d 80 18 01 00 00    	lea    0x118(%eax),%eax
  4041d1:	83 f9 04             	cmp    $0x4,%ecx
  4041d4:	72 4e                	jb     404224 <___mingw_opendir+0x164>
  4041d6:	8b 54 0c 18          	mov    0x18(%esp,%ecx,1),%edx
  4041da:	c1 eb 02             	shr    $0x2,%ebx
  4041dd:	89 c7                	mov    %eax,%edi
  4041df:	89 54 08 fc          	mov    %edx,-0x4(%eax,%ecx,1)
  4041e3:	89 d9                	mov    %ebx,%ecx
  4041e5:	f3 a5                	rep movsl %ds:(%esi),%es:(%edi)
  4041e7:	89 ea                	mov    %ebp,%edx
  4041e9:	e8 42 fd ff ff       	call   403f30 <.text>
  4041ee:	89 85 10 01 00 00    	mov    %eax,0x110(%ebp)
  4041f4:	83 f8 ff             	cmp    $0xffffffff,%eax
  4041f7:	0f 84 a5 00 00 00    	je     4042a2 <___mingw_opendir+0x1e2>
  4041fd:	b8 10 01 00 00       	mov    $0x110,%eax
  404202:	c7 45 00 00 00 00 00 	movl   $0x0,0x0(%ebp)
  404209:	c7 85 14 01 00 00 00 	movl   $0x0,0x114(%ebp)
  404210:	00 00 00 
  404213:	66 89 45 04          	mov    %ax,0x4(%ebp)
  404217:	81 c4 2c 01 00 00    	add    $0x12c,%esp
  40421d:	89 e8                	mov    %ebp,%eax
  40421f:	5b                   	pop    %ebx
  404220:	5e                   	pop    %esi
  404221:	5f                   	pop    %edi
  404222:	5d                   	pop    %ebp
  404223:	c3                   	ret    
  404224:	85 c9                	test   %ecx,%ecx
  404226:	74 bf                	je     4041e7 <___mingw_opendir+0x127>
  404228:	0f b6 16             	movzbl (%esi),%edx
  40422b:	88 10                	mov    %dl,(%eax)
  40422d:	f6 c1 02             	test   $0x2,%cl
  404230:	74 b5                	je     4041e7 <___mingw_opendir+0x127>
  404232:	0f b7 54 0e fe       	movzwl -0x2(%esi,%ecx,1),%edx
  404237:	66 89 54 08 fe       	mov    %dx,-0x2(%eax,%ecx,1)
  40423c:	eb a9                	jmp    4041e7 <___mingw_opendir+0x127>
  40423e:	66 90                	xchg   %ax,%ax
  404240:	c1 e8 10             	shr    $0x10,%eax
  404243:	83 c2 02             	add    $0x2,%edx
  404246:	e9 26 ff ff ff       	jmp    404171 <___mingw_opendir+0xb1>
  40424b:	8d 74 26 00          	lea    0x0(%esi,%eiz,1),%esi
  40424f:	90                   	nop
  404250:	c1 e8 10             	shr    $0x10,%eax
  404253:	83 c2 02             	add    $0x2,%edx
  404256:	e9 c9 fe ff ff       	jmp    404124 <___mingw_opendir+0x64>
  40425b:	8d 74 26 00          	lea    0x0(%esi,%eiz,1),%esi
  40425f:	90                   	nop
  404260:	e8 9b 02 00 00       	call   404500 <__errno>
  404265:	31 ed                	xor    %ebp,%ebp
  404267:	c7 00 02 00 00 00    	movl   $0x2,(%eax)
  40426d:	81 c4 2c 01 00 00    	add    $0x12c,%esp
  404273:	89 e8                	mov    %ebp,%eax
  404275:	5b                   	pop    %ebx
  404276:	5e                   	pop    %esi
  404277:	5f                   	pop    %edi
  404278:	5d                   	pop    %ebp
  404279:	c3                   	ret    
  40427a:	8d b6 00 00 00 00    	lea    0x0(%esi),%esi
  404280:	e8 7b 02 00 00       	call   404500 <__errno>
  404285:	c7 00 0c 00 00 00    	movl   $0xc,(%eax)
  40428b:	eb 8a                	jmp    404217 <___mingw_opendir+0x157>
  40428d:	8d 76 00             	lea    0x0(%esi),%esi
  404290:	e8 6b 02 00 00       	call   404500 <__errno>
  404295:	31 ed                	xor    %ebp,%ebp
  404297:	c7 00 16 00 00 00    	movl   $0x16,(%eax)
  40429d:	e9 75 ff ff ff       	jmp    404217 <___mingw_opendir+0x157>
  4042a2:	89 2c 24             	mov    %ebp,(%esp)
  4042a5:	31 ed                	xor    %ebp,%ebp
  4042a7:	e8 24 02 00 00       	call   4044d0 <_free>
  4042ac:	e9 66 ff ff ff       	jmp    404217 <___mingw_opendir+0x157>
  4042b1:	8d b4 26 00 00 00 00 	lea    0x0(%esi,%eiz,1),%esi
  4042b8:	8d b4 26 00 00 00 00 	lea    0x0(%esi,%eiz,1),%esi
  4042bf:	90                   	nop

004042c0 <___mingw_readdir>:
  4042c0:	53                   	push   %ebx
  4042c1:	83 ec 08             	sub    $0x8,%esp
  4042c4:	8b 44 24 10          	mov    0x10(%esp),%eax
  4042c8:	85 c0                	test   %eax,%eax
  4042ca:	74 34                	je     404300 <___mingw_readdir+0x40>
  4042cc:	8b 90 14 01 00 00    	mov    0x114(%eax),%edx
  4042d2:	89 c3                	mov    %eax,%ebx
  4042d4:	8d 4a 01             	lea    0x1(%edx),%ecx
  4042d7:	89 88 14 01 00 00    	mov    %ecx,0x114(%eax)
  4042dd:	85 d2                	test   %edx,%edx
  4042df:	7e 16                	jle    4042f7 <___mingw_readdir+0x37>
  4042e1:	8b 80 10 01 00 00    	mov    0x110(%eax),%eax
  4042e7:	89 da                	mov    %ebx,%edx
  4042e9:	e8 22 fd ff ff       	call   404010 <.text+0xe0>
  4042ee:	83 f8 01             	cmp    $0x1,%eax
  4042f1:	19 c0                	sbb    %eax,%eax
  4042f3:	f7 d0                	not    %eax
  4042f5:	21 c3                	and    %eax,%ebx
  4042f7:	83 c4 08             	add    $0x8,%esp
  4042fa:	89 d8                	mov    %ebx,%eax
  4042fc:	5b                   	pop    %ebx
  4042fd:	c3                   	ret    
  4042fe:	66 90                	xchg   %ax,%ax
  404300:	e8 fb 01 00 00       	call   404500 <__errno>
  404305:	31 db                	xor    %ebx,%ebx
  404307:	c7 00 09 00 00 00    	movl   $0x9,(%eax)
  40430d:	eb e8                	jmp    4042f7 <___mingw_readdir+0x37>
  40430f:	90                   	nop

00404310 <___mingw_closedir>:
  404310:	53                   	push   %ebx
  404311:	83 ec 18             	sub    $0x18,%esp
  404314:	8b 5c 24 20          	mov    0x20(%esp),%ebx
  404318:	85 db                	test   %ebx,%ebx
  40431a:	74 24                	je     404340 <___mingw_closedir+0x30>
  40431c:	8b 83 10 01 00 00    	mov    0x110(%ebx),%eax
  404322:	89 04 24             	mov    %eax,(%esp)
  404325:	e8 6e 02 00 00       	call   404598 <_FindClose@4>
  40432a:	83 ec 04             	sub    $0x4,%esp
  40432d:	85 c0                	test   %eax,%eax
  40432f:	74 0f                	je     404340 <___mingw_closedir+0x30>
  404331:	89 1c 24             	mov    %ebx,(%esp)
  404334:	e8 97 01 00 00       	call   4044d0 <_free>
  404339:	31 c0                	xor    %eax,%eax
  40433b:	83 c4 18             	add    $0x18,%esp
  40433e:	5b                   	pop    %ebx
  40433f:	c3                   	ret    
  404340:	e8 bb 01 00 00       	call   404500 <__errno>
  404345:	c7 00 09 00 00 00    	movl   $0x9,(%eax)
  40434b:	b8 ff ff ff ff       	mov    $0xffffffff,%eax
  404350:	eb e9                	jmp    40433b <___mingw_closedir+0x2b>
  404352:	8d b4 26 00 00 00 00 	lea    0x0(%esi,%eiz,1),%esi
  404359:	8d b4 26 00 00 00 00 	lea    0x0(%esi,%eiz,1),%esi

00404360 <___mingw_rewinddir>:
  404360:	53                   	push   %ebx
  404361:	83 ec 18             	sub    $0x18,%esp
  404364:	8b 5c 24 20          	mov    0x20(%esp),%ebx
  404368:	85 db                	test   %ebx,%ebx
  40436a:	74 15                	je     404381 <___mingw_rewinddir+0x21>
  40436c:	8b 83 10 01 00 00    	mov    0x110(%ebx),%eax
  404372:	89 04 24             	mov    %eax,(%esp)
  404375:	e8 1e 02 00 00       	call   404598 <_FindClose@4>
  40437a:	83 ec 04             	sub    $0x4,%esp
  40437d:	85 c0                	test   %eax,%eax
  40437f:	75 10                	jne    404391 <___mingw_rewinddir+0x31>
  404381:	e8 7a 01 00 00       	call   404500 <__errno>
  404386:	c7 00 09 00 00 00    	movl   $0x9,(%eax)
  40438c:	83 c4 18             	add    $0x18,%esp
  40438f:	5b                   	pop    %ebx
  404390:	c3                   	ret    
  404391:	8d 83 18 01 00 00    	lea    0x118(%ebx),%eax
  404397:	89 da                	mov    %ebx,%edx
  404399:	e8 92 fb ff ff       	call   403f30 <.text>
  40439e:	89 83 10 01 00 00    	mov    %eax,0x110(%ebx)
  4043a4:	83 f8 ff             	cmp    $0xffffffff,%eax
  4043a7:	74 e3                	je     40438c <___mingw_rewinddir+0x2c>
  4043a9:	c7 83 14 01 00 00 00 	movl   $0x0,0x114(%ebx)
  4043b0:	00 00 00 
  4043b3:	83 c4 18             	add    $0x18,%esp
  4043b6:	5b                   	pop    %ebx
  4043b7:	c3                   	ret    
  4043b8:	8d b4 26 00 00 00 00 	lea    0x0(%esi,%eiz,1),%esi
  4043bf:	90                   	nop

004043c0 <___mingw_telldir>:
  4043c0:	83 ec 0c             	sub    $0xc,%esp
  4043c3:	8b 44 24 10          	mov    0x10(%esp),%eax
  4043c7:	85 c0                	test   %eax,%eax
  4043c9:	74 0a                	je     4043d5 <___mingw_telldir+0x15>
  4043cb:	8b 80 14 01 00 00    	mov    0x114(%eax),%eax
  4043d1:	83 c4 0c             	add    $0xc,%esp
  4043d4:	c3                   	ret    
  4043d5:	e8 26 01 00 00       	call   404500 <__errno>
  4043da:	c7 00 09 00 00 00    	movl   $0x9,(%eax)
  4043e0:	b8 ff ff ff ff       	mov    $0xffffffff,%eax
  4043e5:	eb ea                	jmp    4043d1 <___mingw_telldir+0x11>
  4043e7:	8d b4 26 00 00 00 00 	lea    0x0(%esi,%eiz,1),%esi
  4043ee:	66 90                	xchg   %ax,%ax

004043f0 <___mingw_seekdir>:
  4043f0:	56                   	push   %esi
  4043f1:	53                   	push   %ebx
  4043f2:	83 ec 14             	sub    $0x14,%esp
  4043f5:	8b 74 24 24          	mov    0x24(%esp),%esi
  4043f9:	8b 5c 24 20          	mov    0x20(%esp),%ebx
  4043fd:	85 f6                	test   %esi,%esi
  4043ff:	78 4f                	js     404450 <___mingw_seekdir+0x60>
  404401:	89 1c 24             	mov    %ebx,(%esp)
  404404:	e8 57 ff ff ff       	call   404360 <___mingw_rewinddir>
  404409:	85 f6                	test   %esi,%esi
  40440b:	74 37                	je     404444 <___mingw_seekdir+0x54>
  40440d:	83 bb 10 01 00 00 ff 	cmpl   $0xffffffff,0x110(%ebx)
  404414:	75 1b                	jne    404431 <___mingw_seekdir+0x41>
  404416:	eb 2c                	jmp    404444 <___mingw_seekdir+0x54>
  404418:	8d b4 26 00 00 00 00 	lea    0x0(%esi,%eiz,1),%esi
  40441f:	90                   	nop
  404420:	8b 83 10 01 00 00    	mov    0x110(%ebx),%eax
  404426:	89 da                	mov    %ebx,%edx
  404428:	e8 e3 fb ff ff       	call   404010 <.text+0xe0>
  40442d:	85 c0                	test   %eax,%eax
  40442f:	74 13                	je     404444 <___mingw_seekdir+0x54>
  404431:	8b 83 14 01 00 00    	mov    0x114(%ebx),%eax
  404437:	83 c0 01             	add    $0x1,%eax
  40443a:	89 83 14 01 00 00    	mov    %eax,0x114(%ebx)
  404440:	39 f0                	cmp    %esi,%eax
  404442:	7c dc                	jl     404420 <___mingw_seekdir+0x30>
  404444:	83 c4 14             	add    $0x14,%esp
  404447:	5b                   	pop    %ebx
  404448:	5e                   	pop    %esi
  404449:	c3                   	ret    
  40444a:	8d b6 00 00 00 00    	lea    0x0(%esi),%esi
  404450:	e8 ab 00 00 00       	call   404500 <__errno>
  404455:	c7 00 16 00 00 00    	movl   $0x16,(%eax)
  40445b:	83 c4 14             	add    $0x14,%esp
  40445e:	5b                   	pop    %ebx
  40445f:	5e                   	pop    %esi
  404460:	c3                   	ret    
  404461:	90                   	nop
  404462:	90                   	nop
  404463:	90                   	nop
  404464:	90                   	nop
  404465:	90                   	nop
  404466:	90                   	nop
  404467:	90                   	nop
  404468:	90                   	nop
  404469:	90                   	nop
  40446a:	90                   	nop
  40446b:	90                   	nop
  40446c:	90                   	nop
  40446d:	90                   	nop
  40446e:	90                   	nop
  40446f:	90                   	nop

00404470 <_wcstombs>:
  404470:	ff 25 ec f2 40 00    	jmp    *0x40f2ec
  404476:	90                   	nop
  404477:	90                   	nop

00404478 <_vfprintf>:
  404478:	ff 25 e8 f2 40 00    	jmp    *0x40f2e8
  40447e:	90                   	nop
  40447f:	90                   	nop

00404480 <_tolower>:
  404480:	ff 25 e4 f2 40 00    	jmp    *0x40f2e4
  404486:	90                   	nop
  404487:	90                   	nop

00404488 <_strlen>:
  404488:	ff 25 e0 f2 40 00    	jmp    *0x40f2e0
  40448e:	90                   	nop
  40448f:	90                   	nop

00404490 <_strcoll>:
  404490:	ff 25 dc f2 40 00    	jmp    *0x40f2dc
  404496:	90                   	nop
  404497:	90                   	nop

00404498 <_signal>:
  404498:	ff 25 d8 f2 40 00    	jmp    *0x40f2d8
  40449e:	90                   	nop
  40449f:	90                   	nop

004044a0 <_setlocale>:
  4044a0:	ff 25 d4 f2 40 00    	jmp    *0x40f2d4
  4044a6:	90                   	nop
  4044a7:	90                   	nop

004044a8 <_realloc>:
  4044a8:	ff 25 d0 f2 40 00    	jmp    *0x40f2d0
  4044ae:	90                   	nop
  4044af:	90                   	nop

004044b0 <_memcpy>:
  4044b0:	ff 25 cc f2 40 00    	jmp    *0x40f2cc
  4044b6:	90                   	nop
  4044b7:	90                   	nop

004044b8 <_mbstowcs>:
  4044b8:	ff 25 c8 f2 40 00    	jmp    *0x40f2c8
  4044be:	90                   	nop
  4044bf:	90                   	nop

004044c0 <_malloc>:
  4044c0:	ff 25 c4 f2 40 00    	jmp    *0x40f2c4
  4044c6:	90                   	nop
  4044c7:	90                   	nop

004044c8 <_fwrite>:
  4044c8:	ff 25 c0 f2 40 00    	jmp    *0x40f2c0
  4044ce:	90                   	nop
  4044cf:	90                   	nop

004044d0 <_free>:
  4044d0:	ff 25 bc f2 40 00    	jmp    *0x40f2bc
  4044d6:	90                   	nop
  4044d7:	90                   	nop

004044d8 <_calloc>:
  4044d8:	ff 25 b8 f2 40 00    	jmp    *0x40f2b8
  4044de:	90                   	nop
  4044df:	90                   	nop

004044e0 <_abort>:
  4044e0:	ff 25 b0 f2 40 00    	jmp    *0x40f2b0
  4044e6:	90                   	nop
  4044e7:	90                   	nop

004044e8 <__setmode>:
  4044e8:	ff 25 ac f2 40 00    	jmp    *0x40f2ac
  4044ee:	90                   	nop
  4044ef:	90                   	nop

004044f0 <__isctype>:
  4044f0:	ff 25 a0 f2 40 00    	jmp    *0x40f2a0
  4044f6:	90                   	nop
  4044f7:	90                   	nop

004044f8 <__fullpath>:
  4044f8:	ff 25 98 f2 40 00    	jmp    *0x40f298
  4044fe:	90                   	nop
  4044ff:	90                   	nop

00404500 <__errno>:
  404500:	ff 25 90 f2 40 00    	jmp    *0x40f290
  404506:	90                   	nop
  404507:	90                   	nop

00404508 <__cexit>:
  404508:	ff 25 8c f2 40 00    	jmp    *0x40f28c
  40450e:	90                   	nop
  40450f:	90                   	nop

00404510 <___p__fmode>:
  404510:	ff 25 84 f2 40 00    	jmp    *0x40f284
  404516:	90                   	nop
  404517:	90                   	nop

00404518 <___p__environ>:
  404518:	ff 25 80 f2 40 00    	jmp    *0x40f280
  40451e:	90                   	nop
  40451f:	90                   	nop

00404520 <___getmainargs>:
  404520:	ff 25 78 f2 40 00    	jmp    *0x40f278
  404526:	90                   	nop
  404527:	90                   	nop

00404528 <_VirtualQuery@12>:
  404528:	ff 25 64 f2 40 00    	jmp    *0x40f264
  40452e:	90                   	nop
  40452f:	90                   	nop

00404530 <_VirtualProtect@16>:
  404530:	ff 25 60 f2 40 00    	jmp    *0x40f260
  404536:	90                   	nop
  404537:	90                   	nop

00404538 <_TlsGetValue@4>:
  404538:	ff 25 5c f2 40 00    	jmp    *0x40f25c
  40453e:	90                   	nop
  40453f:	90                   	nop

00404540 <_SetUnhandledExceptionFilter@4>:
  404540:	ff 25 58 f2 40 00    	jmp    *0x40f258
  404546:	90                   	nop
  404547:	90                   	nop

00404548 <_LoadLibraryA@4>:
  404548:	ff 25 54 f2 40 00    	jmp    *0x40f254
  40454e:	90                   	nop
  40454f:	90                   	nop

00404550 <_LeaveCriticalSection@4>:
  404550:	ff 25 50 f2 40 00    	jmp    *0x40f250
  404556:	90                   	nop
  404557:	90                   	nop

00404558 <_InitializeCriticalSection@4>:
  404558:	ff 25 4c f2 40 00    	jmp    *0x40f24c
  40455e:	90                   	nop
  40455f:	90                   	nop

00404560 <_GetProcAddress@8>:
  404560:	ff 25 48 f2 40 00    	jmp    *0x40f248
  404566:	90                   	nop
  404567:	90                   	nop

00404568 <_GetModuleHandleA@4>:
  404568:	ff 25 44 f2 40 00    	jmp    *0x40f244
  40456e:	90                   	nop
  40456f:	90                   	nop

00404570 <_GetLastError@0>:
  404570:	ff 25 40 f2 40 00    	jmp    *0x40f240
  404576:	90                   	nop
  404577:	90                   	nop

00404578 <_GetCommandLineA@0>:
  404578:	ff 25 3c f2 40 00    	jmp    *0x40f23c
  40457e:	90                   	nop
  40457f:	90                   	nop

00404580 <_FreeLibrary@4>:
  404580:	ff 25 38 f2 40 00    	jmp    *0x40f238
  404586:	90                   	nop
  404587:	90                   	nop

00404588 <_FindNextFileA@8>:
  404588:	ff 25 34 f2 40 00    	jmp    *0x40f234
  40458e:	90                   	nop
  40458f:	90                   	nop

00404590 <_FindFirstFileA@8>:
  404590:	ff 25 30 f2 40 00    	jmp    *0x40f230
  404596:	90                   	nop
  404597:	90                   	nop

00404598 <_FindClose@4>:
  404598:	ff 25 2c f2 40 00    	jmp    *0x40f22c
  40459e:	90                   	nop
  40459f:	90                   	nop

004045a0 <_ExitProcess@4>:
  4045a0:	ff 25 28 f2 40 00    	jmp    *0x40f228
  4045a6:	90                   	nop
  4045a7:	90                   	nop

004045a8 <_EnterCriticalSection@4>:
  4045a8:	ff 25 24 f2 40 00    	jmp    *0x40f224
  4045ae:	90                   	nop
  4045af:	90                   	nop

004045b0 <_DeleteCriticalSection@4>:
  4045b0:	ff 25 20 f2 40 00    	jmp    *0x40f220
  4045b6:	90                   	nop
  4045b7:	90                   	nop

004045b8 <_stricoll>:
  4045b8:	ff 25 70 f2 40 00    	jmp    *0x40f270
  4045be:	90                   	nop
  4045bf:	90                   	nop

004045c0 <_strdup>:
  4045c0:	ff 25 6c f2 40 00    	jmp    *0x40f26c
  4045c6:	90                   	nop
        file(string input)
  4045c7:	90                   	nop

004045c8 <__ZN4fileC1ENSt7__cxx1112basic_stringIcSt11char_traitsIcESaIcEEE>:
  4045c8:	55                   	push   %ebp
  4045c9:	89 e5                	mov    %esp,%ebp
  4045cb:	56                   	push   %esi
  4045cc:	53                   	push   %ebx
  4045cd:	81 ec c0 01 00 00    	sub    $0x1c0,%esp
  4045d3:	89 8d 54 fe ff ff    	mov    %ecx,-0x1ac(%ebp)
        {
  4045d9:	8b 85 54 fe ff ff    	mov    -0x1ac(%ebp),%eax
  4045df:	89 c1                	mov    %eax,%ecx
  4045e1:	e8 ae d7 ff ff       	call   401d94 <__ZNSt7__cxx1112basic_stringIcSt11char_traitsIcESaIcEEC1Ev>
  4045e6:	8b 85 54 fe ff ff    	mov    -0x1ac(%ebp),%eax
  4045ec:	83 c0 18             	add    $0x18,%eax
  4045ef:	89 c1                	mov    %eax,%ecx
  4045f1:	e8 9e d7 ff ff       	call   401d94 <__ZNSt7__cxx1112basic_stringIcSt11char_traitsIcESaIcEEC1Ev>
  4045f6:	8b 85 54 fe ff ff    	mov    -0x1ac(%ebp),%eax
  4045fc:	83 c0 34             	add    $0x34,%eax
  4045ff:	89 c1                	mov    %eax,%ecx
  404601:	e8 8e d7 ff ff       	call   401d94 <__ZNSt7__cxx1112basic_stringIcSt11char_traitsIcESaIcEEC1Ev>
            size = 0;
  404606:	8b 85 54 fe ff ff    	mov    -0x1ac(%ebp),%eax
  40460c:	c7 40 30 00 00 00 00 	movl   $0x0,0x30(%eax)
            stringstream parser(input);
  404613:	c7 44 24 04 08 00 00 	movl   $0x8,0x4(%esp)
  40461a:	00 
  40461b:	c7 04 24 10 00 00 00 	movl   $0x10,(%esp)
  404622:	e8 39 27 00 00       	call   406d60 <__ZStorSt13_Ios_OpenmodeS_>
  404627:	89 c2                	mov    %eax,%edx
  404629:	8d 85 28 ff ff ff    	lea    -0xd8(%ebp),%eax
  40462f:	89 54 24 04          	mov    %edx,0x4(%esp)
  404633:	8b 55 08             	mov    0x8(%ebp),%edx
  404636:	89 14 24             	mov    %edx,(%esp)
  404639:	89 c1                	mov    %eax,%ecx
  40463b:	e8 34 d7 ff ff       	call   401d74 <__ZNSt7__cxx1118basic_stringstreamIcSt11char_traitsIcESaIcEEC1ERKNS_12basic_stringIcS2_S3_EESt13_Ios_Openmode>
  404640:	83 ec 08             	sub    $0x8,%esp
            parser >> fullname >> size;
  404643:	8b 85 54 fe ff ff    	mov    -0x1ac(%ebp),%eax
  404649:	89 44 24 04          	mov    %eax,0x4(%esp)
  40464d:	8d 85 28 ff ff ff    	lea    -0xd8(%ebp),%eax
  404653:	89 04 24             	mov    %eax,(%esp)
  404656:	e8 a1 d6 ff ff       	call   401cfc <__ZStrsIcSt11char_traitsIcESaIcEERSt13basic_istreamIT_T0_ES7_RNSt7__cxx1112basic_stringIS4_S5_T1_EE>
  40465b:	89 c2                	mov    %eax,%edx
  40465d:	8b 85 54 fe ff ff    	mov    -0x1ac(%ebp),%eax
  404663:	83 c0 30             	add    $0x30,%eax
  404666:	89 04 24             	mov    %eax,(%esp)
  404669:	89 d1                	mov    %edx,%ecx
  40466b:	e8 84 d7 ff ff       	call   401df4 <__ZNSirsERi>
  404670:	83 ec 04             	sub    $0x4,%esp
            istringstream iparser(fullname);
  404673:	8b 95 54 fe ff ff    	mov    -0x1ac(%ebp),%edx
  404679:	8d 85 5c fe ff ff    	lea    -0x1a4(%ebp),%eax
  40467f:	c7 44 24 04 08 00 00 	movl   $0x8,0x4(%esp)
  404686:	00 
  404687:	89 14 24             	mov    %edx,(%esp)
  40468a:	89 c1                	mov    %eax,%ecx
  40468c:	e8 cb d6 ff ff       	call   401d5c <__ZNSt7__cxx1119basic_istringstreamIcSt11char_traitsIcESaIcEEC1ERKNS_12basic_stringIcS2_S3_EESt13_Ios_Openmode>
  404691:	83 ec 08             	sub    $0x8,%esp
            while(getline(iparser,ext,'.'));
  404694:	8b 85 54 fe ff ff    	mov    -0x1ac(%ebp),%eax
  40469a:	83 c0 18             	add    $0x18,%eax
  40469d:	c7 44 24 08 2e 00 00 	movl   $0x2e,0x8(%esp)
  4046a4:	00 
  4046a5:	89 44 24 04          	mov    %eax,0x4(%esp)
  4046a9:	8d 85 5c fe ff ff    	lea    -0x1a4(%ebp),%eax
  4046af:	89 04 24             	mov    %eax,(%esp)
  4046b2:	e8 55 d6 ff ff       	call   401d0c <__ZSt7getlineIcSt11char_traitsIcESaIcEERSt13basic_istreamIT_T0_ES7_RNSt7__cxx1112basic_stringIS4_S5_T1_EES4_>
  4046b7:	8b 10                	mov    (%eax),%edx
  4046b9:	83 ea 0c             	sub    $0xc,%edx
  4046bc:	8b 12                	mov    (%edx),%edx
  4046be:	01 d0                	add    %edx,%eax
  4046c0:	89 c1                	mov    %eax,%ecx
  4046c2:	e8 4d d7 ff ff       	call   401e14 <__ZNKSt9basic_iosIcSt11char_traitsIcEEcvbEv>
  4046c7:	84 c0                	test   %al,%al
  4046c9:	74 02                	je     4046cd <__ZN4fileC1ENSt7__cxx1112basic_stringIcSt11char_traitsIcESaIcEEE+0x105>
  4046cb:	eb c7                	jmp    404694 <__ZN4fileC1ENSt7__cxx1112basic_stringIcSt11char_traitsIcESaIcEEE+0xcc>
            transform(ext.begin(),ext.end(),ext.begin(),::tolower);
  4046cd:	8b 85 54 fe ff ff    	mov    -0x1ac(%ebp),%eax
  4046d3:	83 c0 18             	add    $0x18,%eax
  4046d6:	89 c1                	mov    %eax,%ecx
  4046d8:	e8 f7 d6 ff ff       	call   401dd4 <__ZNSt7__cxx1112basic_stringIcSt11char_traitsIcESaIcEE5beginEv>
  4046dd:	89 c6                	mov    %eax,%esi
  4046df:	8b 85 54 fe ff ff    	mov    -0x1ac(%ebp),%eax
  4046e5:	83 c0 18             	add    $0x18,%eax
  4046e8:	89 c1                	mov    %eax,%ecx
  4046ea:	e8 ed d6 ff ff       	call   401ddc <__ZNSt7__cxx1112basic_stringIcSt11char_traitsIcESaIcEE3endEv>
  4046ef:	89 c3                	mov    %eax,%ebx
  4046f1:	8b 85 54 fe ff ff    	mov    -0x1ac(%ebp),%eax
  4046f7:	83 c0 18             	add    $0x18,%eax
  4046fa:	89 c1                	mov    %eax,%ecx
  4046fc:	e8 d3 d6 ff ff       	call   401dd4 <__ZNSt7__cxx1112basic_stringIcSt11char_traitsIcESaIcEE5beginEv>
  404701:	c7 44 24 0c 80 44 40 	movl   $0x404480,0xc(%esp)
  404708:	00 
  404709:	89 74 24 08          	mov    %esi,0x8(%esp)
  40470d:	89 5c 24 04          	mov    %ebx,0x4(%esp)
  404711:	89 04 24             	mov    %eax,(%esp)
  404714:	e8 ab 25 00 00       	call   406cc4 <__ZSt9transformIN9__gnu_cxx17__normal_iteratorIPcNSt7__cxx1112basic_stringIcSt11char_traitsIcESaIcEEEEES9_PU5cdeclFiiEET0_T_SD_SC_T1_>
            if(ext=="mp3"||ext=="aac"||ext=="flac")
  404719:	8b 85 54 fe ff ff    	mov    -0x1ac(%ebp),%eax
  40471f:	83 c0 18             	add    $0x18,%eax
  404722:	c7 44 24 04 47 90 40 	movl   $0x409047,0x4(%esp)
  404729:	00 
  40472a:	89 04 24             	mov    %eax,(%esp)
  40472d:	e8 f2 25 00 00       	call   406d24 <__ZSteqIcSt11char_traitsIcESaIcEEbRKNSt7__cxx1112basic_stringIT_T0_T1_EEPKS5_>
  404732:	84 c0                	test   %al,%al
  404734:	75 3a                	jne    404770 <__ZN4fileC1ENSt7__cxx1112basic_stringIcSt11char_traitsIcESaIcEEE+0x1a8>
  404736:	8b 85 54 fe ff ff    	mov    -0x1ac(%ebp),%eax
  40473c:	83 c0 18             	add    $0x18,%eax
  40473f:	c7 44 24 04 4b 90 40 	movl   $0x40904b,0x4(%esp)
  404746:	00 
  404747:	89 04 24             	mov    %eax,(%esp)
  40474a:	e8 d5 25 00 00       	call   406d24 <__ZSteqIcSt11char_traitsIcESaIcEEbRKNSt7__cxx1112basic_stringIT_T0_T1_EEPKS5_>
  40474f:	84 c0                	test   %al,%al
  404751:	75 1d                	jne    404770 <__ZN4fileC1ENSt7__cxx1112basic_stringIcSt11char_traitsIcESaIcEEE+0x1a8>
  404753:	8b 85 54 fe ff ff    	mov    -0x1ac(%ebp),%eax
  404759:	83 c0 18             	add    $0x18,%eax
  40475c:	c7 44 24 04 4f 90 40 	movl   $0x40904f,0x4(%esp)
  404763:	00 
  404764:	89 04 24             	mov    %eax,(%esp)
  404767:	e8 b8 25 00 00       	call   406d24 <__ZSteqIcSt11char_traitsIcESaIcEEbRKNSt7__cxx1112basic_stringIT_T0_T1_EEPKS5_>
  40476c:	84 c0                	test   %al,%al
  40476e:	74 07                	je     404777 <__ZN4fileC1ENSt7__cxx1112basic_stringIcSt11char_traitsIcESaIcEEE+0x1af>
  404770:	b8 01 00 00 00       	mov    $0x1,%eax
  404775:	eb 05                	jmp    40477c <__ZN4fileC1ENSt7__cxx1112basic_stringIcSt11char_traitsIcESaIcEEE+0x1b4>
  404777:	b8 00 00 00 00       	mov    $0x0,%eax
  40477c:	84 c0                	test   %al,%al
  40477e:	74 1f                	je     40479f <__ZN4fileC1ENSt7__cxx1112basic_stringIcSt11char_traitsIcESaIcEEE+0x1d7>
                type = "music";
  404780:	8b 85 54 fe ff ff    	mov    -0x1ac(%ebp),%eax
  404786:	83 c0 34             	add    $0x34,%eax
  404789:	c7 04 24 54 90 40 00 	movl   $0x409054,(%esp)
  404790:	89 c1                	mov    %eax,%ecx
  404792:	e8 e5 d5 ff ff       	call   401d7c <__ZNSt7__cxx1112basic_stringIcSt11char_traitsIcESaIcEEaSEPKc>
  404797:	83 ec 04             	sub    $0x4,%esp
  40479a:	e9 23 01 00 00       	jmp    4048c2 <__ZN4fileC1ENSt7__cxx1112basic_stringIcSt11char_traitsIcESaIcEEE+0x2fa>
            else if(ext=="jpg"||ext=="bmp"||ext=="gif")
  40479f:	8b 85 54 fe ff ff    	mov    -0x1ac(%ebp),%eax
  4047a5:	83 c0 18             	add    $0x18,%eax
  4047a8:	c7 44 24 04 5a 90 40 	movl   $0x40905a,0x4(%esp)
  4047af:	00 
  4047b0:	89 04 24             	mov    %eax,(%esp)
  4047b3:	e8 6c 25 00 00       	call   406d24 <__ZSteqIcSt11char_traitsIcESaIcEEbRKNSt7__cxx1112basic_stringIT_T0_T1_EEPKS5_>
  4047b8:	84 c0                	test   %al,%al
  4047ba:	75 3a                	jne    4047f6 <__ZN4fileC1ENSt7__cxx1112basic_stringIcSt11char_traitsIcESaIcEEE+0x22e>
  4047bc:	8b 85 54 fe ff ff    	mov    -0x1ac(%ebp),%eax
  4047c2:	83 c0 18             	add    $0x18,%eax
  4047c5:	c7 44 24 04 5e 90 40 	movl   $0x40905e,0x4(%esp)
  4047cc:	00 
  4047cd:	89 04 24             	mov    %eax,(%esp)
  4047d0:	e8 4f 25 00 00       	call   406d24 <__ZSteqIcSt11char_traitsIcESaIcEEbRKNSt7__cxx1112basic_stringIT_T0_T1_EEPKS5_>
  4047d5:	84 c0                	test   %al,%al
  4047d7:	75 1d                	jne    4047f6 <__ZN4fileC1ENSt7__cxx1112basic_stringIcSt11char_traitsIcESaIcEEE+0x22e>
  4047d9:	8b 85 54 fe ff ff    	mov    -0x1ac(%ebp),%eax
  4047df:	83 c0 18             	add    $0x18,%eax
  4047e2:	c7 44 24 04 62 90 40 	movl   $0x409062,0x4(%esp)
  4047e9:	00 
  4047ea:	89 04 24             	mov    %eax,(%esp)
  4047ed:	e8 32 25 00 00       	call   406d24 <__ZSteqIcSt11char_traitsIcESaIcEEbRKNSt7__cxx1112basic_stringIT_T0_T1_EEPKS5_>
  4047f2:	84 c0                	test   %al,%al
  4047f4:	74 07                	je     4047fd <__ZN4fileC1ENSt7__cxx1112basic_stringIcSt11char_traitsIcESaIcEEE+0x235>
  4047f6:	b8 01 00 00 00       	mov    $0x1,%eax
  4047fb:	eb 05                	jmp    404802 <__ZN4fileC1ENSt7__cxx1112basic_stringIcSt11char_traitsIcESaIcEEE+0x23a>
  4047fd:	b8 00 00 00 00       	mov    $0x0,%eax
  404802:	84 c0                	test   %al,%al
  404804:	74 1f                	je     404825 <__ZN4fileC1ENSt7__cxx1112basic_stringIcSt11char_traitsIcESaIcEEE+0x25d>
                type = "image";
  404806:	8b 85 54 fe ff ff    	mov    -0x1ac(%ebp),%eax
  40480c:	83 c0 34             	add    $0x34,%eax
  40480f:	c7 04 24 66 90 40 00 	movl   $0x409066,(%esp)
  404816:	89 c1                	mov    %eax,%ecx
  404818:	e8 5f d5 ff ff       	call   401d7c <__ZNSt7__cxx1112basic_stringIcSt11char_traitsIcESaIcEEaSEPKc>
  40481d:	83 ec 04             	sub    $0x4,%esp
  404820:	e9 9d 00 00 00       	jmp    4048c2 <__ZN4fileC1ENSt7__cxx1112basic_stringIcSt11char_traitsIcESaIcEEE+0x2fa>
            else if(ext=="mp4"||ext=="avi"||ext=="mkv")
  404825:	8b 85 54 fe ff ff    	mov    -0x1ac(%ebp),%eax
  40482b:	83 c0 18             	add    $0x18,%eax
  40482e:	c7 44 24 04 6c 90 40 	movl   $0x40906c,0x4(%esp)
  404835:	00 
  404836:	89 04 24             	mov    %eax,(%esp)
  404839:	e8 e6 24 00 00       	call   406d24 <__ZSteqIcSt11char_traitsIcESaIcEEbRKNSt7__cxx1112basic_stringIT_T0_T1_EEPKS5_>
  40483e:	84 c0                	test   %al,%al
  404840:	75 3a                	jne    40487c <__ZN4fileC1ENSt7__cxx1112basic_stringIcSt11char_traitsIcESaIcEEE+0x2b4>
  404842:	8b 85 54 fe ff ff    	mov    -0x1ac(%ebp),%eax
  404848:	83 c0 18             	add    $0x18,%eax
  40484b:	c7 44 24 04 70 90 40 	movl   $0x409070,0x4(%esp)
  404852:	00 
  404853:	89 04 24             	mov    %eax,(%esp)
  404856:	e8 c9 24 00 00       	call   406d24 <__ZSteqIcSt11char_traitsIcESaIcEEbRKNSt7__cxx1112basic_stringIT_T0_T1_EEPKS5_>
  40485b:	84 c0                	test   %al,%al
  40485d:	75 1d                	jne    40487c <__ZN4fileC1ENSt7__cxx1112basic_stringIcSt11char_traitsIcESaIcEEE+0x2b4>
  40485f:	8b 85 54 fe ff ff    	mov    -0x1ac(%ebp),%eax
  404865:	83 c0 18             	add    $0x18,%eax
  404868:	c7 44 24 04 74 90 40 	movl   $0x409074,0x4(%esp)
  40486f:	00 
  404870:	89 04 24             	mov    %eax,(%esp)
  404873:	e8 ac 24 00 00       	call   406d24 <__ZSteqIcSt11char_traitsIcESaIcEEbRKNSt7__cxx1112basic_stringIT_T0_T1_EEPKS5_>
  404878:	84 c0                	test   %al,%al
  40487a:	74 07                	je     404883 <__ZN4fileC1ENSt7__cxx1112basic_stringIcSt11char_traitsIcESaIcEEE+0x2bb>
  40487c:	b8 01 00 00 00       	mov    $0x1,%eax
  404881:	eb 05                	jmp    404888 <__ZN4fileC1ENSt7__cxx1112basic_stringIcSt11char_traitsIcESaIcEEE+0x2c0>
  404883:	b8 00 00 00 00       	mov    $0x0,%eax
  404888:	84 c0                	test   %al,%al
  40488a:	74 1c                	je     4048a8 <__ZN4fileC1ENSt7__cxx1112basic_stringIcSt11char_traitsIcESaIcEEE+0x2e0>
                type = "movie";
  40488c:	8b 85 54 fe ff ff    	mov    -0x1ac(%ebp),%eax
  404892:	83 c0 34             	add    $0x34,%eax
  404895:	c7 04 24 78 90 40 00 	movl   $0x409078,(%esp)
  40489c:	89 c1                	mov    %eax,%ecx
  40489e:	e8 d9 d4 ff ff       	call   401d7c <__ZNSt7__cxx1112basic_stringIcSt11char_traitsIcESaIcEEaSEPKc>
  4048a3:	83 ec 04             	sub    $0x4,%esp
  4048a6:	eb 1a                	jmp    4048c2 <__ZN4fileC1ENSt7__cxx1112basic_stringIcSt11char_traitsIcESaIcEEE+0x2fa>
                type = "other";
  4048a8:	8b 85 54 fe ff ff    	mov    -0x1ac(%ebp),%eax
  4048ae:	83 c0 34             	add    $0x34,%eax
  4048b1:	c7 04 24 7e 90 40 00 	movl   $0x40907e,(%esp)
  4048b8:	89 c1                	mov    %eax,%ecx
  4048ba:	e8 bd d4 ff ff       	call   401d7c <__ZNSt7__cxx1112basic_stringIcSt11char_traitsIcESaIcEEaSEPKc>
  4048bf:	83 ec 04             	sub    $0x4,%esp
            istringstream iparser(fullname);
  4048c2:	8d 85 5c fe ff ff    	lea    -0x1a4(%ebp),%eax
  4048c8:	89 c1                	mov    %eax,%ecx
  4048ca:	e8 85 d4 ff ff       	call   401d54 <__ZNSt7__cxx1119basic_istringstreamIcSt11char_traitsIcESaIcEED1Ev>
            stringstream parser(input);
  4048cf:	8d 85 28 ff ff ff    	lea    -0xd8(%ebp),%eax
  4048d5:	89 c1                	mov    %eax,%ecx
  4048d7:	e8 88 d4 ff ff       	call   401d64 <__ZNSt7__cxx1118basic_stringstreamIcSt11char_traitsIcESaIcEED1Ev>
        }
  4048dc:	eb 5b                	jmp    404939 <__ZN4fileC1ENSt7__cxx1112basic_stringIcSt11char_traitsIcESaIcEEE+0x371>
  4048de:	89 c3                	mov    %eax,%ebx
            istringstream iparser(fullname);
  4048e0:	8d 85 5c fe ff ff    	lea    -0x1a4(%ebp),%eax
  4048e6:	89 c1                	mov    %eax,%ecx
  4048e8:	e8 67 d4 ff ff       	call   401d54 <__ZNSt7__cxx1119basic_istringstreamIcSt11char_traitsIcESaIcEED1Ev>
  4048ed:	eb 02                	jmp    4048f1 <__ZN4fileC1ENSt7__cxx1112basic_stringIcSt11char_traitsIcESaIcEEE+0x329>
  4048ef:	89 c3                	mov    %eax,%ebx
            stringstream parser(input);
  4048f1:	8d 85 28 ff ff ff    	lea    -0xd8(%ebp),%eax
  4048f7:	89 c1                	mov    %eax,%ecx
  4048f9:	e8 66 d4 ff ff       	call   401d64 <__ZNSt7__cxx1118basic_stringstreamIcSt11char_traitsIcESaIcEED1Ev>
  4048fe:	eb 02                	jmp    404902 <__ZN4fileC1ENSt7__cxx1112basic_stringIcSt11char_traitsIcESaIcEEE+0x33a>
  404900:	89 c3                	mov    %eax,%ebx
        {
  404902:	8b 85 54 fe ff ff    	mov    -0x1ac(%ebp),%eax
  404908:	83 c0 34             	add    $0x34,%eax
  40490b:	89 c1                	mov    %eax,%ecx
  40490d:	e8 7a d4 ff ff       	call   401d8c <__ZNSt7__cxx1112basic_stringIcSt11char_traitsIcESaIcEED1Ev>
  404912:	8b 85 54 fe ff ff    	mov    -0x1ac(%ebp),%eax
  404918:	83 c0 18             	add    $0x18,%eax
  40491b:	89 c1                	mov    %eax,%ecx
  40491d:	e8 6a d4 ff ff       	call   401d8c <__ZNSt7__cxx1112basic_stringIcSt11char_traitsIcESaIcEED1Ev>
  404922:	8b 85 54 fe ff ff    	mov    -0x1ac(%ebp),%eax
  404928:	89 c1                	mov    %eax,%ecx
  40492a:	e8 5d d4 ff ff       	call   401d8c <__ZNSt7__cxx1112basic_stringIcSt11char_traitsIcESaIcEED1Ev>
  40492f:	89 d8                	mov    %ebx,%eax
  404931:	89 04 24             	mov    %eax,(%esp)
  404934:	e8 b7 e0 ff ff       	call   4029f0 <__Unwind_Resume>
        }
  404939:	8d 65 f8             	lea    -0x8(%ebp),%esp
  40493c:	5b                   	pop    %ebx
  40493d:	5e                   	pop    %esi
  40493e:	5d                   	pop    %ebp
  40493f:	c2 04 00             	ret    $0x4
  404942:	90                   	nop
class file
  404943:	90                   	nop

00404944 <__ZN4fileD1Ev>:
  404944:	55                   	push   %ebp
  404945:	89 e5                	mov    %esp,%ebp
  404947:	83 ec 18             	sub    $0x18,%esp
  40494a:	89 4d f4             	mov    %ecx,-0xc(%ebp)
  40494d:	8b 45 f4             	mov    -0xc(%ebp),%eax
  404950:	83 c0 34             	add    $0x34,%eax
  404953:	89 c1                	mov    %eax,%ecx
  404955:	e8 32 d4 ff ff       	call   401d8c <__ZNSt7__cxx1112basic_stringIcSt11char_traitsIcESaIcEED1Ev>
  40495a:	8b 45 f4             	mov    -0xc(%ebp),%eax
  40495d:	83 c0 18             	add    $0x18,%eax
  404960:	89 c1                	mov    %eax,%ecx
  404962:	e8 25 d4 ff ff       	call   401d8c <__ZNSt7__cxx1112basic_stringIcSt11char_traitsIcESaIcEED1Ev>
  404967:	8b 45 f4             	mov    -0xc(%ebp),%eax
